

Microchip MPLAB XC8 Assembler V2.35 build 20211206165544 
                                                                                               Thu Jun 02 21:57:15 2022

Microchip MPLAB XC8 C Compiler v2.35 (Free license) build 20211206165544 Og1 
     1                           	processor	16F887
     2                           	pagewidth 120
     3                           	opt	flic
     4                           	psect	idataBANK1,global,class=CODE,delta=2,noexec
     5                           	psect	cinit,global,class=CODE,merge=1,delta=2
     6                           	psect	bssBANK0,global,class=BANK0,space=1,delta=1,noexec
     7                           	psect	bssBANK1,global,class=BANK1,space=1,delta=1,noexec
     8                           	psect	dataBANK1,global,class=BANK1,space=1,delta=1,noexec
     9                           	psect	clrtext,global,class=CODE,delta=2
    10                           	psect	cstackBANK1,global,class=BANK1,space=1,delta=1,noexec
    11                           	psect	cstackCOMMON,global,class=COMMON,space=1,delta=1,noexec
    12                           	psect	cstackBANK0,global,class=BANK0,space=1,delta=1,noexec
    13                           	psect	maintext,global,class=CODE,split=1,delta=2
    14                           	psect	text1,local,class=CODE,merge=1,delta=2
    15                           	psect	text2,local,class=CODE,merge=1,delta=2
    16                           	psect	intentry,global,class=CODE,delta=2
    17                           	psect	text3,local,class=CODE,merge=1,delta=2
    18                           	psect	text4,local,class=CODE,merge=1,delta=2
    19                           	psect	text5,local,class=CODE,merge=1,delta=2
    20                           	psect	text6,local,class=CODE,merge=1,delta=2,group=1
    21                           	psect	text7,local,class=CODE,merge=1,delta=2,group=1
    22                           	psect	text8,local,class=CODE,merge=1,delta=2,group=1
    23                           	psect	text9,local,class=CODE,merge=1,delta=2,group=1
    24                           	psect	text10,local,class=CODE,merge=1,delta=2,group=1
    25                           	psect	text11,local,class=CODE,merge=1,delta=2,group=1
    26                           	psect	idloc,global,abs,ovrld,class=IDLOC,space=5,delta=2,noexec
    27                           	psect	config,global,abs,ovrld,class=CONFIG,space=4,delta=2,noexec
    28                           	dabs	1,0x7E,2
    29  0000                     
    30                           ; Version 2.40
    31                           ; Generated 17/11/2021 GMT
    32                           ; 
    33                           ; Copyright © 2021, Microchip Technology Inc. and its subsidiaries ("Microchip")
    34                           ; All rights reserved.
    35                           ; 
    36                           ; This software is developed by Microchip Technology Inc. and its subsidiaries ("Microch
      +                          ip").
    37                           ; 
    38                           ; Redistribution and use in source and binary forms, with or without modification, are
    39                           ; permitted provided that the following conditions are met:
    40                           ; 
    41                           ;     1. Redistributions of source code must retain the above copyright notice, this lis
      +                          t of
    42                           ;        conditions and the following disclaimer.
    43                           ; 
    44                           ;     2. Redistributions in binary form must reproduce the above copyright notice, this 
      +                          list
    45                           ;        of conditions and the following disclaimer in the documentation and/or other
    46                           ;        materials provided with the distribution. Publication is not required when
    47                           ;        this file is used in an embedded application.
    48                           ; 
    49                           ;     3. Microchip's name may not be used to endorse or promote products derived from th
      +                          is
    50                           ;        software without specific prior written permission.
    51                           ; 
    52                           ; THIS SOFTWARE IS PROVIDED BY MICROCHIP "AS IS" AND ANY EXPRESS OR IMPLIED WARRANTIES,
    53                           ; INCLUDING, BUT NOT LIMITED TO, THE IMPLIED WARRANTIES OF MERCHANTABILITY AND FITNESS F
      +                          OR
    54                           ; PURPOSE ARE DISCLAIMED.  IN NO EVENT SHALL MICROCHIP BE LIABLE FOR ANY DIRECT, INDIREC
      +                          T,
    55                           ; INCIDENTAL, SPECIAL, EXEMPLARY, OR CONSEQUENTIAL DAMAGES (INCLUDING BUT NOT LIMITED TO
    56                           ; PROCUREMENT OF SUBSTITUTE GOODS OR SERVICES; LOSS OF USE, DATA OR PROFITS; OR BUSINESS
    57                           ; INTERRUPTION) HOWSOEVER CAUSED AND ON ANY THEORY OF LIABILITY, WHETHER IN CONTRACT, ST
      +                          RICT
    58                           ; LIABILITY, OR TORT (INCLUDING NEGLIGENCE OR OTHERWISE) ARISING IN ANY WAY OUT OF THE U
      +                          SE OF
    59                           ; THIS SOFTWARE, EVEN IF ADVISED OF THE POSSIBILITY OF SUCH DAMAGE.
    60                           ; 
    61                           ; 
    62                           ; Code-generator required, PIC16F887 Definitions
    63                           ; 
    64                           ; SFR Addresses
    65  0000                     	;# 
    66  0001                     	;# 
    67  0002                     	;# 
    68  0003                     	;# 
    69  0004                     	;# 
    70  0005                     	;# 
    71  0006                     	;# 
    72  0007                     	;# 
    73  0008                     	;# 
    74  0009                     	;# 
    75  000A                     	;# 
    76  000B                     	;# 
    77  000C                     	;# 
    78  000D                     	;# 
    79  000E                     	;# 
    80  000E                     	;# 
    81  000F                     	;# 
    82  0010                     	;# 
    83  0011                     	;# 
    84  0012                     	;# 
    85  0013                     	;# 
    86  0014                     	;# 
    87  0015                     	;# 
    88  0015                     	;# 
    89  0016                     	;# 
    90  0017                     	;# 
    91  0018                     	;# 
    92  0019                     	;# 
    93  001A                     	;# 
    94  001B                     	;# 
    95  001B                     	;# 
    96  001C                     	;# 
    97  001D                     	;# 
    98  001E                     	;# 
    99  001F                     	;# 
   100  0081                     	;# 
   101  0085                     	;# 
   102  0086                     	;# 
   103  0087                     	;# 
   104  0088                     	;# 
   105  0089                     	;# 
   106  008C                     	;# 
   107  008D                     	;# 
   108  008E                     	;# 
   109  008F                     	;# 
   110  0090                     	;# 
   111  0091                     	;# 
   112  0092                     	;# 
   113  0093                     	;# 
   114  0093                     	;# 
   115  0093                     	;# 
   116  0094                     	;# 
   117  0095                     	;# 
   118  0096                     	;# 
   119  0097                     	;# 
   120  0098                     	;# 
   121  0099                     	;# 
   122  009A                     	;# 
   123  009B                     	;# 
   124  009C                     	;# 
   125  009D                     	;# 
   126  009E                     	;# 
   127  009F                     	;# 
   128  0105                     	;# 
   129  0107                     	;# 
   130  0108                     	;# 
   131  0109                     	;# 
   132  010C                     	;# 
   133  010C                     	;# 
   134  010D                     	;# 
   135  010E                     	;# 
   136  010F                     	;# 
   137  0185                     	;# 
   138  0187                     	;# 
   139  0188                     	;# 
   140  0189                     	;# 
   141  018C                     	;# 
   142  018D                     	;# 
   143  0000                     	;# 
   144  0001                     	;# 
   145  0002                     	;# 
   146  0003                     	;# 
   147  0004                     	;# 
   148  0005                     	;# 
   149  0006                     	;# 
   150  0007                     	;# 
   151  0008                     	;# 
   152  0009                     	;# 
   153  000A                     	;# 
   154  000B                     	;# 
   155  000C                     	;# 
   156  000D                     	;# 
   157  000E                     	;# 
   158  000E                     	;# 
   159  000F                     	;# 
   160  0010                     	;# 
   161  0011                     	;# 
   162  0012                     	;# 
   163  0013                     	;# 
   164  0014                     	;# 
   165  0015                     	;# 
   166  0015                     	;# 
   167  0016                     	;# 
   168  0017                     	;# 
   169  0018                     	;# 
   170  0019                     	;# 
   171  001A                     	;# 
   172  001B                     	;# 
   173  001B                     	;# 
   174  001C                     	;# 
   175  001D                     	;# 
   176  001E                     	;# 
   177  001F                     	;# 
   178  0081                     	;# 
   179  0085                     	;# 
   180  0086                     	;# 
   181  0087                     	;# 
   182  0088                     	;# 
   183  0089                     	;# 
   184  008C                     	;# 
   185  008D                     	;# 
   186  008E                     	;# 
   187  008F                     	;# 
   188  0090                     	;# 
   189  0091                     	;# 
   190  0092                     	;# 
   191  0093                     	;# 
   192  0093                     	;# 
   193  0093                     	;# 
   194  0094                     	;# 
   195  0095                     	;# 
   196  0096                     	;# 
   197  0097                     	;# 
   198  0098                     	;# 
   199  0099                     	;# 
   200  009A                     	;# 
   201  009B                     	;# 
   202  009C                     	;# 
   203  009D                     	;# 
   204  009E                     	;# 
   205  009F                     	;# 
   206  0105                     	;# 
   207  0107                     	;# 
   208  0108                     	;# 
   209  0109                     	;# 
   210  010C                     	;# 
   211  010C                     	;# 
   212  010D                     	;# 
   213  010E                     	;# 
   214  010F                     	;# 
   215  0185                     	;# 
   216  0187                     	;# 
   217  0188                     	;# 
   218  0189                     	;# 
   219  018C                     	;# 
   220  018D                     	;# 
   221                           
   222                           	psect	idataBANK1
   223  07FE                     __pidataBANK1:
   224                           
   225                           ;initializer for _cont_slave
   226  07FE  34FF               	retlw	255
   227  0018                     _RCSTAbits	set	24
   228  0012                     _T2CONbits	set	18
   229  001D                     _CCP2CON	set	29
   230  0017                     _CCP1CON	set	23
   231  0014                     _SSPCONbits	set	20
   232  0007                     _PORTC	set	7
   233  0005                     _PORTA	set	5
   234  0008                     _PORTD	set	8
   235  0006                     _PORTB	set	6
   236  0008                     _PORTDbits	set	8
   237  000B                     _INTCONbits	set	11
   238  001D                     _CCP2CONbits	set	29
   239  001B                     _CCPR2L	set	27
   240  0017                     _CCP1CONbits	set	23
   241  0015                     _CCPR1L	set	21
   242  0013                     _SSPBUF	set	19
   243  0005                     _PORTAbits	set	5
   244  001E                     _ADRESH	set	30
   245  001F                     _ADCON0bits	set	31
   246  000C                     _PIR1bits	set	12
   247  0034                     _RB4	set	52
   248  0033                     _RB3	set	51
   249  0032                     _RB2	set	50
   250  0031                     _RB1	set	49
   251  0030                     _RB0	set	48
   252  009A                     _SPBRGH	set	154
   253  0099                     _SPBRG	set	153
   254  0098                     _TXSTAbits	set	152
   255  0096                     _IOCBbits	set	150
   256  0095                     _WPUBbits	set	149
   257  0081                     _OPTION_REGbits	set	129
   258  0092                     _PR2	set	146
   259  0087                     _TRISCbits	set	135
   260  009F                     _ADCON1bits	set	159
   261  0087                     _TRISC	set	135
   262  008F                     _OSCCONbits	set	143
   263  0085                     _TRISA	set	133
   264  0088                     _TRISD	set	136
   265  0086                     _TRISB	set	134
   266  008C                     _PIE1bits	set	140
   267  0094                     _SSPSTATbits	set	148
   268  010C                     _EEDAT	set	268
   269  010D                     _EEADR	set	269
   270  018D                     _EECON2	set	397
   271  018C                     _EECON1bits	set	396
   272  0187                     _BAUDCTLbits	set	391
   273  0189                     _ANSELH	set	393
   274  0188                     _ANSEL	set	392
   275                           
   276                           	psect	cinit
   277  0013                     start_initialization:	
   278                           ; #config settings
   279                           
   280  0013                     __initialization:
   281                           
   282                           ; Initialize objects allocated to BANK1
   283  0013  1683               	bsf	3,5	;RP0=1, select bank1
   284  0014  1303               	bcf	3,6	;RP1=0, select bank1
   285  0015  120A  118A  27FE  120A  118A  	fcall	__pidataBANK1	;fetch initializer
   286  001A  00C8               	movwf	__pdataBANK1& (0+127)
   287                           
   288                           ; Clear objects allocated to BANK1
   289  001B  1383               	bcf	3,7	;select IRP bank0
   290  001C  30A0               	movlw	low __pbssBANK1
   291  001D  0084               	movwf	4
   292  001E  30B4               	movlw	low (__pbssBANK1+20)
   293  001F  120A  158A  2253  120A  118A  	fcall	clear_ram0
   294                           
   295                           ; Clear objects allocated to BANK0
   296  0024  1283               	bcf	3,5	;RP0=0, select bank0
   297  0025  1303               	bcf	3,6	;RP1=0, select bank0
   298  0026  01EF               	clrf	__pbssBANK0& (0+127)
   299  0027                     end_of_initialization:	
   300                           ;End of C runtime variable initialization code
   301                           
   302  0027                     __end_of__initialization:
   303  0027  0183               	clrf	3
   304  0028  120A  158A  2C88   	ljmp	_main	;jump to C main() function
   305                           
   306                           	psect	bssBANK0
   307  006F                     __pbssBANK0:
   308  006F                     _cont_master:
   309  006F                     	ds	1
   310                           
   311                           	psect	bssBANK1
   312  00A0                     __pbssBANK1:
   313  00A0                     _CCPR_2:
   314  00A0                     	ds	2
   315  00A2                     _CCPR:
   316  00A2                     	ds	2
   317  00A4                     _POTS:
   318  00A4                     	ds	2
   319  00A6                     _address_cr2:
   320  00A6                     	ds	1
   321  00A7                     _address_ci2:
   322  00A7                     	ds	1
   323  00A8                     _address_pr2:
   324  00A8                     	ds	1
   325  00A9                     _address_pi2:
   326  00A9                     	ds	1
   327  00AA                     _address_cr1:
   328  00AA                     	ds	1
   329  00AB                     _address_ci1:
   330  00AB                     	ds	1
   331  00AC                     _address_pr1:
   332  00AC                     	ds	1
   333  00AD                     _address_pi1:
   334  00AD                     	ds	1
   335  00AE                     _cont:
   336  00AE                     	ds	1
   337  00AF                     _POT_4:
   338  00AF                     	ds	1
   339  00B0                     _POT_3:
   340  00B0                     	ds	1
   341  00B1                     _POT_2:
   342  00B1                     	ds	1
   343  00B2                     _POT_1:
   344  00B2                     	ds	1
   345  00B3                     _val_temporal:
   346  00B3                     	ds	1
   347                           
   348                           	psect	dataBANK1
   349  00C8                     __pdataBANK1:
   350  00C8                     _cont_slave:
   351  00C8                     	ds	1
   352                           
   353                           	psect	clrtext
   354  0A53                     clear_ram0:	
   355                           ;	Called with FSR containing the base address, and
   356                           ;	W with the last address+1
   357                           
   358  0A53  0064               	clrwdt	;clear the watchdog before getting into this loop
   359  0A54                     clrloop0:
   360  0A54  0180               	clrf	0	;clear RAM location pointed to by FSR
   361  0A55  0A84               	incf	4,f	;increment pointer
   362  0A56  0604               	xorwf	4,w	;XOR with final address
   363  0A57  1903               	btfsc	3,2	;have we reached the end yet?
   364  0A58  3400               	retlw	0	;all done for this memory range, return
   365  0A59  0604               	xorwf	4,w	;XOR again to restore value
   366  0A5A  2A54               	goto	clrloop0	;do the next byte
   367                           
   368                           	psect	cstackBANK1
   369  00B4                     __pcstackBANK1:
   370  00B4                     ??___fltol:
   371                           
   372                           ; 1 bytes @ 0x0
   373  00B4                     	ds	5
   374  00B9                     ?_map:
   375  00B9                     map@x0:	
   376                           ; 2 bytes @ 0x5
   377                           
   378                           
   379                           ; 1 bytes @ 0x5
   380  00B9                     	ds	1
   381  00BA                     map@x1:
   382                           
   383                           ; 1 bytes @ 0x6
   384  00BA                     	ds	1
   385  00BB                     map@y0:
   386                           
   387                           ; 2 bytes @ 0x7
   388  00BB                     	ds	2
   389  00BD                     map@y1:
   390                           
   391                           ; 2 bytes @ 0x9
   392  00BD                     	ds	2
   393  00BF                     ??_isr:
   394                           
   395                           ; 1 bytes @ 0xB
   396  00BF                     	ds	6
   397  00C5                     ??_setup:
   398                           
   399                           ; 1 bytes @ 0x11
   400  00C5                     	ds	1
   401  00C6                     ??_main:
   402                           
   403                           ; 1 bytes @ 0x12
   404  00C6                     	ds	2
   405                           
   406                           	psect	cstackCOMMON
   407  0070                     __pcstackCOMMON:
   408  0070                     ?_write_EEPROM:
   409  0070                     ?_read_EEPROM:	
   410                           ; 1 bytes @ 0x0
   411                           
   412  0070                     ??_read_EEPROM:	
   413                           ; 1 bytes @ 0x0
   414                           
   415  0070                     ?_setup:	
   416                           ; 1 bytes @ 0x0
   417                           
   418  0070                     ?_isr:	
   419                           ; 1 bytes @ 0x0
   420                           
   421  0070                     ?_main:	
   422                           ; 1 bytes @ 0x0
   423                           
   424  0070                     ?__Umul8_16:	
   425                           ; 1 bytes @ 0x0
   426                           
   427  0070                     ?___xxtofl:	
   428                           ; 2 bytes @ 0x0
   429                           
   430  0070                     read_EEPROM@address:	
   431                           ; 4 bytes @ 0x0
   432                           
   433  0070                     write_EEPROM@data:	
   434                           ; 1 bytes @ 0x0
   435                           
   436  0070                     __Umul8_16@multiplicand:	
   437                           ; 1 bytes @ 0x0
   438                           
   439  0070                     ___xxtofl@val:	
   440                           ; 1 bytes @ 0x0
   441                           
   442                           
   443                           ; 4 bytes @ 0x0
   444  0070                     	ds	1
   445  0071                     ??_write_EEPROM:
   446  0071                     write_EEPROM@address:	
   447                           ; 1 bytes @ 0x1
   448                           
   449                           
   450                           ; 1 bytes @ 0x1
   451  0071                     	ds	1
   452  0072                     ??__Umul8_16:
   453                           
   454                           ; 1 bytes @ 0x2
   455  0072                     	ds	2
   456  0074                     ??___xxtofl:
   457  0074                     __Umul8_16@product:	
   458                           ; 1 bytes @ 0x4
   459                           
   460                           
   461                           ; 2 bytes @ 0x4
   462  0074                     	ds	2
   463  0076                     __Umul8_16@word_mpld:
   464                           
   465                           ; 2 bytes @ 0x6
   466  0076                     	ds	2
   467  0078                     __Umul8_16@multiplier:
   468  0078                     ___xxtofl@sign:	
   469                           ; 1 bytes @ 0x8
   470                           
   471                           
   472                           ; 1 bytes @ 0x8
   473  0078                     	ds	1
   474  0079                     ___xxtofl@exp:
   475                           
   476                           ; 1 bytes @ 0x9
   477  0079                     	ds	1
   478  007A                     ___xxtofl@arg:
   479                           
   480                           ; 4 bytes @ 0xA
   481  007A                     	ds	4
   482  007E                     ??_map:
   483                           
   484                           	psect	cstackBANK0
   485  0020                     __pcstackBANK0:	
   486                           ; 1 bytes @ 0xE
   487                           
   488  0020                     ?___fldiv:
   489  0020                     ___fldiv@a:	
   490                           ; 4 bytes @ 0x0
   491                           
   492                           
   493                           ; 4 bytes @ 0x0
   494  0020                     	ds	4
   495  0024                     ___fldiv@b:
   496                           
   497                           ; 4 bytes @ 0x4
   498  0024                     	ds	4
   499  0028                     ??___fldiv:
   500                           
   501                           ; 1 bytes @ 0x8
   502  0028                     	ds	5
   503  002D                     ___fldiv@rem:
   504                           
   505                           ; 4 bytes @ 0xD
   506  002D                     	ds	4
   507  0031                     ___fldiv@sign:
   508                           
   509                           ; 1 bytes @ 0x11
   510  0031                     	ds	1
   511  0032                     ___fldiv@new_exp:
   512                           
   513                           ; 2 bytes @ 0x12
   514  0032                     	ds	2
   515  0034                     ___fldiv@grs:
   516                           
   517                           ; 4 bytes @ 0x14
   518  0034                     	ds	4
   519  0038                     ___fldiv@bexp:
   520                           
   521                           ; 1 bytes @ 0x18
   522  0038                     	ds	1
   523  0039                     ___fldiv@aexp:
   524                           
   525                           ; 1 bytes @ 0x19
   526  0039                     	ds	1
   527  003A                     ?___flmul:
   528  003A                     ___flmul@b:	
   529                           ; 4 bytes @ 0x1A
   530                           
   531                           
   532                           ; 4 bytes @ 0x1A
   533  003A                     	ds	4
   534  003E                     ___flmul@a:
   535                           
   536                           ; 4 bytes @ 0x1E
   537  003E                     	ds	4
   538  0042                     ??___flmul:
   539                           
   540                           ; 1 bytes @ 0x22
   541  0042                     	ds	5
   542  0047                     ___flmul@sign:
   543                           
   544                           ; 1 bytes @ 0x27
   545  0047                     	ds	1
   546  0048                     ___flmul@grs:
   547                           
   548                           ; 4 bytes @ 0x28
   549  0048                     	ds	4
   550  004C                     ___flmul@aexp:
   551                           
   552                           ; 1 bytes @ 0x2C
   553  004C                     	ds	1
   554  004D                     ___flmul@bexp:
   555                           
   556                           ; 1 bytes @ 0x2D
   557  004D                     	ds	1
   558  004E                     ___flmul@prod:
   559                           
   560                           ; 4 bytes @ 0x2E
   561  004E                     	ds	4
   562  0052                     ___flmul@temp:
   563                           
   564                           ; 2 bytes @ 0x32
   565  0052                     	ds	2
   566  0054                     ?___fladd:
   567  0054                     ___fladd@b:	
   568                           ; 4 bytes @ 0x34
   569                           
   570                           
   571                           ; 4 bytes @ 0x34
   572  0054                     	ds	4
   573  0058                     ___fladd@a:
   574                           
   575                           ; 4 bytes @ 0x38
   576  0058                     	ds	4
   577  005C                     ??___fladd:
   578                           
   579                           ; 1 bytes @ 0x3C
   580  005C                     	ds	8
   581  0064                     ___fladd@signs:
   582                           
   583                           ; 1 bytes @ 0x44
   584  0064                     	ds	1
   585  0065                     ___fladd@aexp:
   586                           
   587                           ; 1 bytes @ 0x45
   588  0065                     	ds	1
   589  0066                     ___fladd@bexp:
   590                           
   591                           ; 1 bytes @ 0x46
   592  0066                     	ds	1
   593  0067                     ___fladd@grs:
   594                           
   595                           ; 1 bytes @ 0x47
   596  0067                     	ds	1
   597  0068                     ?___fltol:
   598  0068                     ___fltol@f1:	
   599                           ; 4 bytes @ 0x48
   600                           
   601                           
   602                           ; 4 bytes @ 0x48
   603  0068                     	ds	4
   604  006C                     ___fltol@sign1:
   605                           
   606                           ; 1 bytes @ 0x4C
   607  006C                     	ds	1
   608  006D                     ___fltol@exp1:
   609                           
   610                           ; 1 bytes @ 0x4D
   611  006D                     	ds	1
   612  006E                     map@x:
   613                           
   614                           ; 1 bytes @ 0x4E
   615  006E                     	ds	1
   616                           
   617                           	psect	maintext
   618  0C88                     __pmaintext:	
   619 ;;
   620 ;;Main: autosize = 0, tempsize = 2, incstack = 0, save=0
   621 ;;
   622 ;; *************** function _main *****************
   623 ;; Defined at:
   624 ;;		line 150 in file "Main_Otto.c"
   625 ;; Parameters:    Size  Location     Type
   626 ;;		None
   627 ;; Auto vars:     Size  Location     Type
   628 ;;		None
   629 ;; Return value:  Size  Location     Type
   630 ;;                  1    wreg      void 
   631 ;; Registers used:
   632 ;;		wreg, fsr0l, fsr0h, status,2, status,0, pclath, cstack
   633 ;; Tracked objects:
   634 ;;		On entry : B00/0
   635 ;;		On exit  : 0/0
   636 ;;		Unchanged: 0/0
   637 ;; Data sizes:     COMMON   BANK0   BANK1   BANK3   BANK2
   638 ;;      Params:         0       0       0       0       0
   639 ;;      Locals:         0       0       0       0       0
   640 ;;      Temps:          0       0       2       0       0
   641 ;;      Totals:         0       0       2       0       0
   642 ;;Total ram usage:        2 bytes
   643 ;; Hardware stack levels required when called: 5
   644 ;; This function calls:
   645 ;;		_setup
   646 ;; This function is called by:
   647 ;;		Startup code after reset
   648 ;; This function uses a non-reentrant model
   649 ;;
   650                           
   651  0C88                     _main:	
   652                           ;psect for function _main
   653                           
   654  0C88                     l2390:	
   655                           ;incstack = 0
   656                           ; Regs used in _main: [wreg-fsr0h+status,2+status,0+pclath+cstack]
   657                           
   658                           
   659                           ;Main_Otto.c: 151:     setup();
   660  0C88  120A  158A  2333  120A  158A  	fcall	_setup
   661  0C8D                     l2392:
   662                           
   663                           ;Main_Otto.c: 154:         address_pi1 = 0x71;
   664  0C8D  3071               	movlw	113
   665  0C8E  1683               	bsf	3,5	;RP0=1, select bank1
   666  0C8F  1303               	bcf	3,6	;RP1=0, select bank1
   667  0C90  00C6               	movwf	??_main^(0+128)
   668  0C91  0846               	movf	??_main^(0+128),w
   669  0C92  00AD               	movwf	_address_pi1^(0+128)
   670  0C93                     l2394:
   671                           
   672                           ;Main_Otto.c: 155:         address_pr1 = 0x72;
   673  0C93  3072               	movlw	114
   674  0C94  00C6               	movwf	??_main^(0+128)
   675  0C95  0846               	movf	??_main^(0+128),w
   676  0C96  00AC               	movwf	_address_pr1^(0+128)
   677  0C97                     l2396:
   678                           
   679                           ;Main_Otto.c: 156:         address_ci1 = 0x73;
   680  0C97  3073               	movlw	115
   681  0C98  00C6               	movwf	??_main^(0+128)
   682  0C99  0846               	movf	??_main^(0+128),w
   683  0C9A  00AB               	movwf	_address_ci1^(0+128)
   684  0C9B                     l2398:
   685                           
   686                           ;Main_Otto.c: 157:         address_cr1 = 0x74;
   687  0C9B  3074               	movlw	116
   688  0C9C  00C6               	movwf	??_main^(0+128)
   689  0C9D  0846               	movf	??_main^(0+128),w
   690  0C9E  00AA               	movwf	_address_cr1^(0+128)
   691  0C9F                     l2400:
   692                           
   693                           ;Main_Otto.c: 159:         address_pi2 = 0x80;
   694  0C9F  3080               	movlw	128
   695  0CA0  00C6               	movwf	??_main^(0+128)
   696  0CA1  0846               	movf	??_main^(0+128),w
   697  0CA2  00A9               	movwf	_address_pi2^(0+128)
   698  0CA3                     l2402:
   699                           
   700                           ;Main_Otto.c: 160:         address_pr2 = 0x81;
   701  0CA3  3081               	movlw	129
   702  0CA4  00C6               	movwf	??_main^(0+128)
   703  0CA5  0846               	movf	??_main^(0+128),w
   704  0CA6  00A8               	movwf	_address_pr2^(0+128)
   705  0CA7                     l2404:
   706                           
   707                           ;Main_Otto.c: 161:         address_ci2 = 0x82;
   708  0CA7  3082               	movlw	130
   709  0CA8  00C6               	movwf	??_main^(0+128)
   710  0CA9  0846               	movf	??_main^(0+128),w
   711  0CAA  00A7               	movwf	_address_ci2^(0+128)
   712  0CAB                     l2406:
   713                           
   714                           ;Main_Otto.c: 162:         address_cr2 = 0x83;
   715  0CAB  3083               	movlw	131
   716  0CAC  00C6               	movwf	??_main^(0+128)
   717  0CAD  0846               	movf	??_main^(0+128),w
   718  0CAE  00A6               	movwf	_address_cr2^(0+128)
   719  0CAF                     l2408:
   720                           
   721                           ;Main_Otto.c: 164:         if(ADCON0bits.GO == 0){
   722  0CAF  1283               	bcf	3,5	;RP0=0, select bank0
   723  0CB0  1303               	bcf	3,6	;RP1=0, select bank0
   724  0CB1  189F               	btfsc	31,1	;volatile
   725  0CB2  2CB4               	goto	u3121
   726  0CB3  2CB5               	goto	u3120
   727  0CB4                     u3121:
   728  0CB4  2D23               	goto	l2432
   729  0CB5                     u3120:
   730  0CB5                     l2410:
   731                           
   732                           ;Main_Otto.c: 165:             if(ADCON0bits.CHS == 0b0000)
   733  0CB5  0C1F               	rrf	31,w	;volatile
   734  0CB6  1683               	bsf	3,5	;RP0=1, select bank1
   735  0CB7  1303               	bcf	3,6	;RP1=0, select bank1
   736  0CB8  00C6               	movwf	??_main^(0+128)
   737  0CB9  0C46               	rrf	??_main^(0+128),w
   738  0CBA  390F               	andlw	15
   739  0CBB  3A00               	xorlw	0
   740  0CBC  1D03               	skipz
   741  0CBD  2CBF               	goto	u3131
   742  0CBE  2CC0               	goto	u3130
   743  0CBF                     u3131:
   744  0CBF  2CC7               	goto	l2414
   745  0CC0                     u3130:
   746  0CC0                     l2412:
   747                           
   748                           ;Main_Otto.c: 166:                 ADCON0bits.CHS = 0b0001;
   749  0CC0  1283               	bcf	3,5	;RP0=0, select bank0
   750  0CC1  1303               	bcf	3,6	;RP1=0, select bank0
   751  0CC2  081F               	movf	31,w	;volatile
   752  0CC3  39C3               	andlw	-61
   753  0CC4  3804               	iorlw	4
   754  0CC5  009F               	movwf	31	;volatile
   755  0CC6  2D01               	goto	l2426
   756  0CC7                     l2414:
   757  0CC7  1283               	bcf	3,5	;RP0=0, select bank0
   758  0CC8  1303               	bcf	3,6	;RP1=0, select bank0
   759  0CC9  0C1F               	rrf	31,w	;volatile
   760  0CCA  1683               	bsf	3,5	;RP0=1, select bank1
   761  0CCB  1303               	bcf	3,6	;RP1=0, select bank1
   762  0CCC  00C6               	movwf	??_main^(0+128)
   763  0CCD  0C46               	rrf	??_main^(0+128),w
   764  0CCE  390F               	andlw	15
   765  0CCF  3A01               	xorlw	1
   766  0CD0  1D03               	skipz
   767  0CD1  2CD3               	goto	u3141
   768  0CD2  2CD4               	goto	u3140
   769  0CD3                     u3141:
   770  0CD3  2CDB               	goto	l2418
   771  0CD4                     u3140:
   772  0CD4                     l2416:
   773                           
   774                           ;Main_Otto.c: 168:                 ADCON0bits.CHS = 0b0010;
   775  0CD4  1283               	bcf	3,5	;RP0=0, select bank0
   776  0CD5  1303               	bcf	3,6	;RP1=0, select bank0
   777  0CD6  081F               	movf	31,w	;volatile
   778  0CD7  39C3               	andlw	-61
   779  0CD8  3808               	iorlw	8
   780  0CD9  009F               	movwf	31	;volatile
   781  0CDA  2D01               	goto	l2426
   782  0CDB                     l2418:
   783  0CDB  1283               	bcf	3,5	;RP0=0, select bank0
   784  0CDC  1303               	bcf	3,6	;RP1=0, select bank0
   785  0CDD  0C1F               	rrf	31,w	;volatile
   786  0CDE  1683               	bsf	3,5	;RP0=1, select bank1
   787  0CDF  1303               	bcf	3,6	;RP1=0, select bank1
   788  0CE0  00C6               	movwf	??_main^(0+128)
   789  0CE1  0C46               	rrf	??_main^(0+128),w
   790  0CE2  390F               	andlw	15
   791  0CE3  3A02               	xorlw	2
   792  0CE4  1D03               	skipz
   793  0CE5  2CE7               	goto	u3151
   794  0CE6  2CE8               	goto	u3150
   795  0CE7                     u3151:
   796  0CE7  2CEF               	goto	l2422
   797  0CE8                     u3150:
   798  0CE8                     l2420:
   799                           
   800                           ;Main_Otto.c: 170:                 ADCON0bits.CHS = 0b0011;
   801  0CE8  1283               	bcf	3,5	;RP0=0, select bank0
   802  0CE9  1303               	bcf	3,6	;RP1=0, select bank0
   803  0CEA  081F               	movf	31,w	;volatile
   804  0CEB  39C3               	andlw	-61
   805  0CEC  380C               	iorlw	12
   806  0CED  009F               	movwf	31	;volatile
   807  0CEE  2D01               	goto	l2426
   808  0CEF                     l2422:
   809  0CEF  1283               	bcf	3,5	;RP0=0, select bank0
   810  0CF0  1303               	bcf	3,6	;RP1=0, select bank0
   811  0CF1  0C1F               	rrf	31,w	;volatile
   812  0CF2  1683               	bsf	3,5	;RP0=1, select bank1
   813  0CF3  1303               	bcf	3,6	;RP1=0, select bank1
   814  0CF4  00C6               	movwf	??_main^(0+128)
   815  0CF5  0C46               	rrf	??_main^(0+128),w
   816  0CF6  390F               	andlw	15
   817  0CF7  3A03               	xorlw	3
   818  0CF8  1D03               	skipz
   819  0CF9  2CFB               	goto	u3161
   820  0CFA  2CFC               	goto	u3160
   821  0CFB                     u3161:
   822  0CFB  2D01               	goto	l175
   823  0CFC                     u3160:
   824  0CFC                     l2424:
   825                           
   826                           ;Main_Otto.c: 172:                 ADCON0bits.CHS = 0b0000;
   827  0CFC  30C3               	movlw	-61
   828  0CFD  1283               	bcf	3,5	;RP0=0, select bank0
   829  0CFE  1303               	bcf	3,6	;RP1=0, select bank0
   830  0CFF  059F               	andwf	31,f	;volatile
   831  0D00  2D01               	goto	l2426
   832  0D01                     l175:
   833  0D01                     l2426:
   834                           
   835                           ;Main_Otto.c: 174:             _delay((unsigned long)((40)*(1000000/4000000.0)));
   836  0D01  3002               	movlw	2
   837  0D02  1683               	bsf	3,5	;RP0=1, select bank1
   838  0D03  1303               	bcf	3,6	;RP1=0, select bank1
   839  0D04  00C6               	movwf	??_main^(0+128)
   840  0D05                     u3177:
   841  0D05  0BC6               	decfsz	??_main^(0+128),f
   842  0D06  2D05               	goto	u3177
   843  0D07  0000               	nop
   844  0D08                     l2428:
   845                           
   846                           ;Main_Otto.c: 175:             ADCON0bits.GO = 1;
   847  0D08  1283               	bcf	3,5	;RP0=0, select bank0
   848  0D09  1303               	bcf	3,6	;RP1=0, select bank0
   849  0D0A  149F               	bsf	31,1	;volatile
   850  0D0B  2D23               	goto	l2432
   851  0D0C                     l180:	
   852                           ;Main_Otto.c: 178:         {;Main_Otto.c: 179:             case 0:
   853                           
   854                           
   855                           ;Main_Otto.c: 180:                 PIE1bits.ADIE = 1;
   856  0D0C  170C               	bsf	12,6	;volatile
   857                           
   858                           ;Main_Otto.c: 181:                 PORTDbits.RD0 = 1;
   859  0D0D  1283               	bcf	3,5	;RP0=0, select bank0
   860  0D0E  1303               	bcf	3,6	;RP1=0, select bank0
   861  0D0F  1408               	bsf	8,0	;volatile
   862                           
   863                           ;Main_Otto.c: 182:                 PORTDbits.RD1 = 0;
   864  0D10  1088               	bcf	8,1	;volatile
   865                           
   866                           ;Main_Otto.c: 183:                 PORTDbits.RD2 = 0;
   867  0D11  1108               	bcf	8,2	;volatile
   868                           
   869                           ;Main_Otto.c: 185:                 break;
   870  0D12  2C8D               	goto	l2392
   871  0D13                     l182:	
   872                           ;Main_Otto.c: 187:             case 1:
   873                           
   874                           
   875                           ;Main_Otto.c: 188:                 PIE1bits.ADIE = 0;
   876  0D13  130C               	bcf	12,6	;volatile
   877                           
   878                           ;Main_Otto.c: 189:                 PORTDbits.RD0 = 0;
   879  0D14  1283               	bcf	3,5	;RP0=0, select bank0
   880  0D15  1303               	bcf	3,6	;RP1=0, select bank0
   881  0D16  1008               	bcf	8,0	;volatile
   882                           
   883                           ;Main_Otto.c: 190:                 PORTDbits.RD1 = 1;
   884  0D17  1488               	bsf	8,1	;volatile
   885                           
   886                           ;Main_Otto.c: 191:                 PORTDbits.RD2 = 0;
   887  0D18  1108               	bcf	8,2	;volatile
   888                           
   889                           ;Main_Otto.c: 193:                 break;
   890  0D19  2C8D               	goto	l2392
   891  0D1A                     l183:	
   892                           ;Main_Otto.c: 194:             case 2:
   893                           
   894                           
   895                           ;Main_Otto.c: 196:                 PIE1bits.ADIE = 1;
   896  0D1A  170C               	bsf	12,6	;volatile
   897                           
   898                           ;Main_Otto.c: 197:                 PORTDbits.RD0 = 0;
   899  0D1B  1283               	bcf	3,5	;RP0=0, select bank0
   900  0D1C  1303               	bcf	3,6	;RP1=0, select bank0
   901  0D1D  1008               	bcf	8,0	;volatile
   902                           
   903                           ;Main_Otto.c: 198:                 PORTDbits.RD1 = 0;
   904  0D1E  1088               	bcf	8,1	;volatile
   905                           
   906                           ;Main_Otto.c: 199:                 PORTDbits.RD2 = 1;
   907  0D1F  1508               	bsf	8,2	;volatile
   908                           
   909                           ;Main_Otto.c: 201:                 break;
   910  0D20  2C8D               	goto	l2392
   911  0D21                     l2430:
   912                           
   913                           ;Main_Otto.c: 203:                 cont = 0;
   914  0D21  01AE               	clrf	_cont^(0+128)
   915                           
   916                           ;Main_Otto.c: 204:         }
   917  0D22  2C8D               	goto	l2392
   918  0D23                     l2432:
   919  0D23  1683               	bsf	3,5	;RP0=1, select bank1
   920  0D24  1303               	bcf	3,6	;RP1=0, select bank1
   921  0D25  082E               	movf	_cont^(0+128),w
   922  0D26  00C6               	movwf	??_main^(0+128)
   923  0D27  01C7               	clrf	(??_main^(0+128)+1)
   924                           
   925                           ; Switch on 2 bytes has been partitioned into a top level switch of size 1, and 1 sub-sw
      +                          itches
   926                           ; Switch size 1, requested type "simple"
   927                           ; Number of cases is 1, Range of values is 0 to 0
   928                           ; switch strategies available:
   929                           ; Name         Instructions Cycles
   930                           ; simple_byte            4     3 (average)
   931                           ; direct_byte           11     8 (fixed)
   932                           ; jumptable            260     6 (fixed)
   933                           ;	Chosen strategy is simple_byte
   934  0D28  0847               	movf	(??_main+1)^(0+128),w
   935  0D29  3A00               	xorlw	0	; case 0
   936  0D2A  1903               	skipnz
   937  0D2B  2D2D               	goto	l2458
   938  0D2C  2D21               	goto	l2430
   939  0D2D                     l2458:
   940                           
   941                           ; Switch size 1, requested type "simple"
   942                           ; Number of cases is 3, Range of values is 0 to 2
   943                           ; switch strategies available:
   944                           ; Name         Instructions Cycles
   945                           ; simple_byte           10     6 (average)
   946                           ; direct_byte           17     8 (fixed)
   947                           ; jumptable            260     6 (fixed)
   948                           ;	Chosen strategy is simple_byte
   949  0D2D  0846               	movf	??_main^(0+128),w
   950  0D2E  3A00               	xorlw	0	; case 0
   951  0D2F  1903               	skipnz
   952  0D30  2D0C               	goto	l180
   953  0D31  3A01               	xorlw	1	; case 1
   954  0D32  1903               	skipnz
   955  0D33  2D13               	goto	l182
   956  0D34  3A03               	xorlw	3	; case 2
   957  0D35  1903               	skipnz
   958  0D36  2D1A               	goto	l183
   959  0D37  2D21               	goto	l2430
   960  0D38  120A  118A  2810   	ljmp	start
   961  0D3B                     __end_of_main:
   962                           
   963                           	psect	text1
   964  0B33                     __ptext1:	
   965 ;; *************** function _setup *****************
   966 ;; Defined at:
   967 ;;		line 211 in file "Main_Otto.c"
   968 ;; Parameters:    Size  Location     Type
   969 ;;		None
   970 ;; Auto vars:     Size  Location     Type
   971 ;;		None
   972 ;; Return value:  Size  Location     Type
   973 ;;                  1    wreg      void 
   974 ;; Registers used:
   975 ;;		wreg, status,2, status,0
   976 ;; Tracked objects:
   977 ;;		On entry : 0/0
   978 ;;		On exit  : 0/0
   979 ;;		Unchanged: 0/0
   980 ;; Data sizes:     COMMON   BANK0   BANK1   BANK3   BANK2
   981 ;;      Params:         0       0       0       0       0
   982 ;;      Locals:         0       0       0       0       0
   983 ;;      Temps:          0       0       1       0       0
   984 ;;      Totals:         0       0       1       0       0
   985 ;;Total ram usage:        1 bytes
   986 ;; Hardware stack levels used: 1
   987 ;; Hardware stack levels required when called: 4
   988 ;; This function calls:
   989 ;;		Nothing
   990 ;; This function is called by:
   991 ;;		_main
   992 ;; This function uses a non-reentrant model
   993 ;;
   994                           
   995  0B33                     _setup:	
   996                           ;psect for function _setup
   997                           
   998  0B33                     l2230:	
   999                           ;incstack = 0
  1000                           ; Regs used in _setup: [wreg+status,2+status,0]
  1001                           
  1002                           
  1003                           ;Main_Otto.c: 212:     ANSEL = 0b00001111;
  1004  0B33  300F               	movlw	15
  1005  0B34  1683               	bsf	3,5	;RP0=1, select bank3
  1006  0B35  1703               	bsf	3,6	;RP1=1, select bank3
  1007  0B36  0088               	movwf	8	;volatile
  1008  0B37                     l2232:
  1009                           
  1010                           ;Main_Otto.c: 213:     ANSELH = 0;
  1011  0B37  0189               	clrf	9	;volatile
  1012  0B38                     l2234:
  1013                           
  1014                           ;Main_Otto.c: 215:     TRISB = 0b00011111;
  1015  0B38  301F               	movlw	31
  1016  0B39  1683               	bsf	3,5	;RP0=1, select bank1
  1017  0B3A  1303               	bcf	3,6	;RP1=0, select bank1
  1018  0B3B  0086               	movwf	6	;volatile
  1019                           
  1020                           ;Main_Otto.c: 216:     PORTB = 0;
  1021  0B3C  1283               	bcf	3,5	;RP0=0, select bank0
  1022  0B3D  1303               	bcf	3,6	;RP1=0, select bank0
  1023  0B3E  0186               	clrf	6	;volatile
  1024                           
  1025                           ;Main_Otto.c: 218:     TRISD = 0;
  1026  0B3F  1683               	bsf	3,5	;RP0=1, select bank1
  1027  0B40  1303               	bcf	3,6	;RP1=0, select bank1
  1028  0B41  0188               	clrf	8	;volatile
  1029                           
  1030                           ;Main_Otto.c: 219:     PORTD = 0;
  1031  0B42  1283               	bcf	3,5	;RP0=0, select bank0
  1032  0B43  1303               	bcf	3,6	;RP1=0, select bank0
  1033  0B44  0188               	clrf	8	;volatile
  1034  0B45                     l2236:
  1035                           
  1036                           ;Main_Otto.c: 221:     TRISA = 0b00001111;
  1037  0B45  300F               	movlw	15
  1038  0B46  1683               	bsf	3,5	;RP0=1, select bank1
  1039  0B47  1303               	bcf	3,6	;RP1=0, select bank1
  1040  0B48  0085               	movwf	5	;volatile
  1041  0B49                     l2238:
  1042                           
  1043                           ;Main_Otto.c: 222:     PORTA = 0;
  1044  0B49  1283               	bcf	3,5	;RP0=0, select bank0
  1045  0B4A  1303               	bcf	3,6	;RP1=0, select bank0
  1046  0B4B  0185               	clrf	5	;volatile
  1047  0B4C                     l2240:
  1048                           
  1049                           ;Main_Otto.c: 224:     OSCCONbits.IRCF = 0b100;
  1050  0B4C  1683               	bsf	3,5	;RP0=1, select bank1
  1051  0B4D  1303               	bcf	3,6	;RP1=0, select bank1
  1052  0B4E  080F               	movf	15,w	;volatile
  1053  0B4F  398F               	andlw	-113
  1054  0B50  3840               	iorlw	64
  1055  0B51  008F               	movwf	15	;volatile
  1056  0B52                     l2242:
  1057                           
  1058                           ;Main_Otto.c: 225:     OSCCONbits.SCS = 1;
  1059  0B52  140F               	bsf	15,0	;volatile
  1060  0B53                     l2244:
  1061                           
  1062                           ;Main_Otto.c: 229:     TRISC = 0b00010000;
  1063  0B53  3010               	movlw	16
  1064  0B54  0087               	movwf	7	;volatile
  1065  0B55                     l2246:
  1066                           
  1067                           ;Main_Otto.c: 230:     PORTC = 0;
  1068  0B55  1283               	bcf	3,5	;RP0=0, select bank0
  1069  0B56  1303               	bcf	3,6	;RP1=0, select bank0
  1070  0B57  0187               	clrf	7	;volatile
  1071  0B58                     l2248:
  1072                           
  1073                           ;Main_Otto.c: 233:     SSPCONbits.SSPM = 0b0000;
  1074  0B58  30F0               	movlw	-16
  1075  0B59  0594               	andwf	20,f	;volatile
  1076  0B5A                     l2250:
  1077                           
  1078                           ;Main_Otto.c: 234:     SSPCONbits.CKP = 0;
  1079  0B5A  1214               	bcf	20,4	;volatile
  1080  0B5B                     l2252:
  1081                           
  1082                           ;Main_Otto.c: 235:     SSPCONbits.SSPEN = 1;
  1083  0B5B  1694               	bsf	20,5	;volatile
  1084  0B5C                     l2254:
  1085                           
  1086                           ;Main_Otto.c: 237:     SSPSTATbits.CKE = 1;
  1087  0B5C  1683               	bsf	3,5	;RP0=1, select bank1
  1088  0B5D  1303               	bcf	3,6	;RP1=0, select bank1
  1089  0B5E  1714               	bsf	20,6	;volatile
  1090  0B5F                     l2256:
  1091                           
  1092                           ;Main_Otto.c: 238:     SSPSTATbits.SMP = 1;
  1093  0B5F  1794               	bsf	20,7	;volatile
  1094                           
  1095                           ;Main_Otto.c: 239:     SSPBUF = val_temporal;
  1096  0B60  1283               	bcf	3,5	;RP0=0, select bank0
  1097  0B61  1303               	bcf	3,6	;RP1=0, select bank0
  1098  0B62  0193               	clrf	19	;volatile
  1099  0B63                     l2258:
  1100                           
  1101                           ;Main_Otto.c: 241:     ADCON0bits.ADCS = 0b00;
  1102  0B63  303F               	movlw	-193
  1103  0B64  059F               	andwf	31,f	;volatile
  1104  0B65                     l2260:
  1105                           
  1106                           ;Main_Otto.c: 242:     ADCON1bits.VCFG0 = 0;
  1107  0B65  1683               	bsf	3,5	;RP0=1, select bank1
  1108  0B66  1303               	bcf	3,6	;RP1=0, select bank1
  1109  0B67  121F               	bcf	31,4	;volatile
  1110  0B68                     l2262:
  1111                           
  1112                           ;Main_Otto.c: 243:     ADCON1bits.VCFG1 = 0;
  1113  0B68  129F               	bcf	31,5	;volatile
  1114  0B69                     l2264:
  1115                           
  1116                           ;Main_Otto.c: 244:     ADCON0bits.CHS = 0b0011;
  1117  0B69  1283               	bcf	3,5	;RP0=0, select bank0
  1118  0B6A  1303               	bcf	3,6	;RP1=0, select bank0
  1119  0B6B  081F               	movf	31,w	;volatile
  1120  0B6C  39C3               	andlw	-61
  1121  0B6D  380C               	iorlw	12
  1122  0B6E  009F               	movwf	31	;volatile
  1123  0B6F                     l2266:
  1124                           
  1125                           ;Main_Otto.c: 245:     ADCON1bits.ADFM = 0;
  1126  0B6F  1683               	bsf	3,5	;RP0=1, select bank1
  1127  0B70  1303               	bcf	3,6	;RP1=0, select bank1
  1128  0B71  139F               	bcf	31,7	;volatile
  1129  0B72                     l2268:
  1130                           
  1131                           ;Main_Otto.c: 246:     ADCON0bits.ADON = 1;
  1132  0B72  1283               	bcf	3,5	;RP0=0, select bank0
  1133  0B73  1303               	bcf	3,6	;RP1=0, select bank0
  1134  0B74  141F               	bsf	31,0	;volatile
  1135  0B75                     l2270:
  1136                           
  1137                           ;Main_Otto.c: 247:     _delay((unsigned long)((40)*(1000000/4000000.0)));
  1138  0B75  3002               	movlw	2
  1139  0B76  1683               	bsf	3,5	;RP0=1, select bank1
  1140  0B77  1303               	bcf	3,6	;RP1=0, select bank1
  1141  0B78  00C5               	movwf	??_setup^(0+128)
  1142  0B79                     u3187:
  1143  0B79  0BC5               	decfsz	??_setup^(0+128),f
  1144  0B7A  2B79               	goto	u3187
  1145  0B7B  0000               	nop
  1146  0B7C                     l2272:
  1147                           
  1148                           ;Main_Otto.c: 250:     TRISCbits.TRISC2 = 1;
  1149  0B7C  1683               	bsf	3,5	;RP0=1, select bank1
  1150  0B7D  1303               	bcf	3,6	;RP1=0, select bank1
  1151  0B7E  1507               	bsf	7,2	;volatile
  1152  0B7F                     l2274:
  1153                           
  1154                           ;Main_Otto.c: 251:     PR2 = 62;
  1155  0B7F  303E               	movlw	62
  1156  0B80  0092               	movwf	18	;volatile
  1157  0B81                     l2276:
  1158                           
  1159                           ;Main_Otto.c: 252:     TRISCbits.TRISC1 = 1;
  1160  0B81  1487               	bsf	7,1	;volatile
  1161                           
  1162                           ;Main_Otto.c: 255:     CCP1CON = 0;
  1163  0B82  1283               	bcf	3,5	;RP0=0, select bank0
  1164  0B83  1303               	bcf	3,6	;RP1=0, select bank0
  1165  0B84  0197               	clrf	23	;volatile
  1166                           
  1167                           ;Main_Otto.c: 256:     CCP2CON = 0;
  1168  0B85  019D               	clrf	29	;volatile
  1169  0B86                     l2278:
  1170                           
  1171                           ;Main_Otto.c: 257:     CCP1CONbits.P1M = 0;
  1172  0B86  303F               	movlw	-193
  1173  0B87  0597               	andwf	23,f	;volatile
  1174  0B88                     l2280:
  1175                           
  1176                           ;Main_Otto.c: 258:     CCP1CONbits.CCP1M = 0b1100;
  1177  0B88  0817               	movf	23,w	;volatile
  1178  0B89  39F0               	andlw	-16
  1179  0B8A  380C               	iorlw	12
  1180  0B8B  0097               	movwf	23	;volatile
  1181  0B8C                     l2282:
  1182                           
  1183                           ;Main_Otto.c: 261:     CCP2CONbits.CCP2M = 0b1100;
  1184  0B8C  081D               	movf	29,w	;volatile
  1185  0B8D  39F0               	andlw	-16
  1186  0B8E  380C               	iorlw	12
  1187  0B8F  009D               	movwf	29	;volatile
  1188  0B90                     l2284:
  1189                           
  1190                           ;Main_Otto.c: 263:     CCPR1L = 125>>2;
  1191  0B90  301F               	movlw	31
  1192  0B91  0095               	movwf	21	;volatile
  1193  0B92                     l2286:
  1194                           
  1195                           ;Main_Otto.c: 264:     CCP1CONbits.DC1B = 125 & 0b11;
  1196  0B92  0817               	movf	23,w	;volatile
  1197  0B93  39CF               	andlw	-49
  1198  0B94  3810               	iorlw	16
  1199  0B95  0097               	movwf	23	;volatile
  1200  0B96                     l2288:
  1201                           
  1202                           ;Main_Otto.c: 266:     CCPR2L = 125>>2;
  1203  0B96  301F               	movlw	31
  1204  0B97  009B               	movwf	27	;volatile
  1205  0B98                     l2290:
  1206                           
  1207                           ;Main_Otto.c: 267:     CCP2CONbits.DC2B0 = 125 & 0b11;
  1208  0B98  161D               	bsf	29,4	;volatile
  1209  0B99                     l2292:
  1210                           
  1211                           ;Main_Otto.c: 268:     CCP2CONbits.DC2B1 = 125 & 0b11;
  1212  0B99  169D               	bsf	29,5	;volatile
  1213  0B9A                     l2294:
  1214                           
  1215                           ;Main_Otto.c: 270:     PIR1bits.TMR2IF = 0;
  1216  0B9A  108C               	bcf	12,1	;volatile
  1217  0B9B                     l2296:
  1218                           
  1219                           ;Main_Otto.c: 271:     T2CONbits.T2CKPS = 0b11;
  1220  0B9B  3003               	movlw	3
  1221  0B9C  0492               	iorwf	18,f	;volatile
  1222  0B9D                     l2298:
  1223                           
  1224                           ;Main_Otto.c: 272:     T2CONbits.TMR2ON = 1;
  1225  0B9D  1512               	bsf	18,2	;volatile
  1226  0B9E                     l190:	
  1227                           ;Main_Otto.c: 273:     while(!PIR1bits.TMR2IF);
  1228                           
  1229  0B9E  1C8C               	btfss	12,1	;volatile
  1230  0B9F  2BA1               	goto	u2981
  1231  0BA0  2BA2               	goto	u2980
  1232  0BA1                     u2981:
  1233  0BA1  2B9E               	goto	l190
  1234  0BA2                     u2980:
  1235  0BA2                     l192:
  1236                           
  1237                           ;Main_Otto.c: 274:     PIR1bits.TMR2IF = 0;
  1238  0BA2  108C               	bcf	12,1	;volatile
  1239                           
  1240                           ;Main_Otto.c: 276:     TRISCbits.TRISC2 = 0;
  1241  0BA3  1683               	bsf	3,5	;RP0=1, select bank1
  1242  0BA4  1303               	bcf	3,6	;RP1=0, select bank1
  1243  0BA5  1107               	bcf	7,2	;volatile
  1244                           
  1245                           ;Main_Otto.c: 277:     TRISCbits.TRISC1 = 0;
  1246  0BA6  1087               	bcf	7,1	;volatile
  1247                           
  1248                           ;Main_Otto.c: 280:     PIR1bits.ADIF = 0;
  1249  0BA7  1283               	bcf	3,5	;RP0=0, select bank0
  1250  0BA8  1303               	bcf	3,6	;RP1=0, select bank0
  1251  0BA9  130C               	bcf	12,6	;volatile
  1252                           
  1253                           ;Main_Otto.c: 281:     PIE1bits.ADIE = 1;
  1254  0BAA  1683               	bsf	3,5	;RP0=1, select bank1
  1255  0BAB  1303               	bcf	3,6	;RP1=0, select bank1
  1256  0BAC  170C               	bsf	12,6	;volatile
  1257                           
  1258                           ;Main_Otto.c: 282:     INTCONbits.PEIE = 1;
  1259  0BAD  170B               	bsf	11,6	;volatile
  1260                           
  1261                           ;Main_Otto.c: 283:     INTCONbits.GIE = 1;
  1262  0BAE  178B               	bsf	11,7	;volatile
  1263                           
  1264                           ;Main_Otto.c: 286:     OPTION_REGbits.nRBPU = 0;
  1265  0BAF  1381               	bcf	1,7	;volatile
  1266                           
  1267                           ;Main_Otto.c: 287:     WPUBbits.WPUB0 = 1;
  1268  0BB0  1415               	bsf	21,0	;volatile
  1269                           
  1270                           ;Main_Otto.c: 288:     WPUBbits.WPUB1 = 1;
  1271  0BB1  1495               	bsf	21,1	;volatile
  1272                           
  1273                           ;Main_Otto.c: 289:     WPUBbits.WPUB2 = 1;
  1274  0BB2  1515               	bsf	21,2	;volatile
  1275                           
  1276                           ;Main_Otto.c: 290:     WPUBbits.WPUB3 = 1;
  1277  0BB3  1595               	bsf	21,3	;volatile
  1278                           
  1279                           ;Main_Otto.c: 291:     WPUBbits.WPUB4 = 1;
  1280  0BB4  1615               	bsf	21,4	;volatile
  1281                           
  1282                           ;Main_Otto.c: 293:     INTCONbits.RBIE = 1;
  1283  0BB5  158B               	bsf	11,3	;volatile
  1284                           
  1285                           ;Main_Otto.c: 294:     IOCBbits.IOCB0 = 1;
  1286  0BB6  1416               	bsf	22,0	;volatile
  1287                           
  1288                           ;Main_Otto.c: 295:     IOCBbits.IOCB1 = 1;
  1289  0BB7  1496               	bsf	22,1	;volatile
  1290                           
  1291                           ;Main_Otto.c: 296:     IOCBbits.IOCB2 = 1;
  1292  0BB8  1516               	bsf	22,2	;volatile
  1293                           
  1294                           ;Main_Otto.c: 297:     IOCBbits.IOCB3 = 1;
  1295  0BB9  1596               	bsf	22,3	;volatile
  1296                           
  1297                           ;Main_Otto.c: 298:     IOCBbits.IOCB4 = 1;
  1298  0BBA  1616               	bsf	22,4	;volatile
  1299                           
  1300                           ;Main_Otto.c: 300:     INTCONbits.RBIF = 0;
  1301  0BBB  100B               	bcf	11,0	;volatile
  1302                           
  1303                           ;Main_Otto.c: 304:     TXSTAbits.SYNC = 0;
  1304  0BBC  1218               	bcf	24,4	;volatile
  1305                           
  1306                           ;Main_Otto.c: 305:     TXSTAbits.BRGH = 1;
  1307  0BBD  1518               	bsf	24,2	;volatile
  1308                           
  1309                           ;Main_Otto.c: 306:     BAUDCTLbits.BRG16 = 1;
  1310  0BBE  1683               	bsf	3,5	;RP0=1, select bank3
  1311  0BBF  1703               	bsf	3,6	;RP1=1, select bank3
  1312  0BC0  1587               	bsf	7,3	;volatile
  1313  0BC1                     l2300:
  1314                           
  1315                           ;Main_Otto.c: 308:     SPBRG = 25;
  1316  0BC1  3019               	movlw	25
  1317  0BC2  1683               	bsf	3,5	;RP0=1, select bank1
  1318  0BC3  1303               	bcf	3,6	;RP1=0, select bank1
  1319  0BC4  0099               	movwf	25	;volatile
  1320  0BC5                     l2302:
  1321                           
  1322                           ;Main_Otto.c: 309:     SPBRGH = 0;
  1323  0BC5  019A               	clrf	26	;volatile
  1324  0BC6                     l2304:
  1325                           
  1326                           ;Main_Otto.c: 311:     RCSTAbits.SPEN = 1;
  1327  0BC6  1283               	bcf	3,5	;RP0=0, select bank0
  1328  0BC7  1303               	bcf	3,6	;RP1=0, select bank0
  1329  0BC8  1798               	bsf	24,7	;volatile
  1330  0BC9                     l2306:
  1331                           
  1332                           ;Main_Otto.c: 312:     TXSTAbits.TX9 = 0;
  1333  0BC9  1683               	bsf	3,5	;RP0=1, select bank1
  1334  0BCA  1303               	bcf	3,6	;RP1=0, select bank1
  1335  0BCB  1318               	bcf	24,6	;volatile
  1336  0BCC                     l2308:
  1337                           
  1338                           ;Main_Otto.c: 313:     TXSTAbits.TXEN = 1;
  1339  0BCC  1698               	bsf	24,5	;volatile
  1340  0BCD                     l2310:
  1341                           
  1342                           ;Main_Otto.c: 314:     RCSTAbits.CREN = 1;
  1343  0BCD  1283               	bcf	3,5	;RP0=0, select bank0
  1344  0BCE  1303               	bcf	3,6	;RP1=0, select bank0
  1345  0BCF  1618               	bsf	24,4	;volatile
  1346  0BD0                     l2312:
  1347                           
  1348                           ;Main_Otto.c: 317:     INTCONbits.GIE = 1;
  1349  0BD0  178B               	bsf	11,7	;volatile
  1350  0BD1                     l2314:
  1351                           
  1352                           ;Main_Otto.c: 318:     INTCONbits.PEIE = 1;
  1353  0BD1  170B               	bsf	11,6	;volatile
  1354  0BD2                     l2316:
  1355                           
  1356                           ;Main_Otto.c: 319:     PIE1bits.RCIE = 1;
  1357  0BD2  1683               	bsf	3,5	;RP0=1, select bank1
  1358  0BD3  1303               	bcf	3,6	;RP1=0, select bank1
  1359  0BD4  168C               	bsf	12,5	;volatile
  1360  0BD5                     l193:
  1361  0BD5  0008               	return
  1362  0BD6                     __end_of_setup:
  1363                           
  1364                           	psect	text2
  1365  0DF5                     __ptext2:	
  1366 ;; *************** function _isr *****************
  1367 ;; Defined at:
  1368 ;;		line 79 in file "Main_Otto.c"
  1369 ;; Parameters:    Size  Location     Type
  1370 ;;		None
  1371 ;; Auto vars:     Size  Location     Type
  1372 ;;		None
  1373 ;; Return value:  Size  Location     Type
  1374 ;;                  1    wreg      void 
  1375 ;; Registers used:
  1376 ;;		wreg, status,2, status,0, btemp+1, pclath, cstack
  1377 ;; Tracked objects:
  1378 ;;		On entry : 0/0
  1379 ;;		On exit  : 0/0
  1380 ;;		Unchanged: 0/0
  1381 ;; Data sizes:     COMMON   BANK0   BANK1   BANK3   BANK2
  1382 ;;      Params:         0       0       0       0       0
  1383 ;;      Locals:         0       0       0       0       0
  1384 ;;      Temps:          0       0       6       0       0
  1385 ;;      Totals:         0       0       6       0       0
  1386 ;;Total ram usage:        6 bytes
  1387 ;; Hardware stack levels used: 1
  1388 ;; Hardware stack levels required when called: 3
  1389 ;; This function calls:
  1390 ;;		_map
  1391 ;;		_read_EEPROM
  1392 ;;		_write_EEPROM
  1393 ;; This function is called by:
  1394 ;;		Interrupt level 1
  1395 ;; This function uses a non-reentrant model
  1396 ;;
  1397                           
  1398  0DF5                     _isr:	
  1399                           ;psect for function _isr
  1400                           
  1401  0DF5                     i1l2318:
  1402                           
  1403                           ;Main_Otto.c: 80:     if(PIR1bits.ADIF){
  1404  0DF5  1283               	bcf	3,5	;RP0=0, select bank0
  1405  0DF6  1303               	bcf	3,6	;RP1=0, select bank0
  1406  0DF7  1F0C               	btfss	12,6	;volatile
  1407  0DF8  2DFA               	goto	u299_21
  1408  0DF9  2DFB               	goto	u299_20
  1409  0DFA                     u299_21:
  1410  0DFA  2F08               	goto	i1l2364
  1411  0DFB                     u299_20:
  1412  0DFB                     i1l2320:
  1413                           
  1414                           ;Main_Otto.c: 81:         if(ADCON0bits.CHS == 0){
  1415  0DFB  0C1F               	rrf	31,w	;volatile
  1416  0DFC  1683               	bsf	3,5	;RP0=1, select bank1
  1417  0DFD  1303               	bcf	3,6	;RP1=0, select bank1
  1418  0DFE  00BF               	movwf	??_isr^(0+128)
  1419  0DFF  0C3F               	rrf	??_isr^(0+128),w
  1420  0E00  390F               	andlw	15
  1421  0E01  3A00               	xorlw	0
  1422  0E02  1D03               	skipz
  1423  0E03  2E05               	goto	u300_21
  1424  0E04  2E06               	goto	u300_20
  1425  0E05                     u300_21:
  1426  0E05  2E2A               	goto	i1l2330
  1427  0E06                     u300_20:
  1428  0E06                     i1l2322:
  1429                           
  1430                           ;Main_Otto.c: 82:             POT_1 = ADRESH;
  1431  0E06  1283               	bcf	3,5	;RP0=0, select bank0
  1432  0E07  1303               	bcf	3,6	;RP1=0, select bank0
  1433  0E08  081E               	movf	30,w	;volatile
  1434  0E09  1683               	bsf	3,5	;RP0=1, select bank1
  1435  0E0A  1303               	bcf	3,6	;RP1=0, select bank1
  1436  0E0B  00BF               	movwf	??_isr^(0+128)
  1437  0E0C  083F               	movf	??_isr^(0+128),w
  1438  0E0D  00B2               	movwf	_POT_1^(0+128)
  1439  0E0E                     i1l2324:
  1440                           
  1441                           ;Main_Otto.c: 83:             PORTAbits.RA7 = 1;
  1442  0E0E  1283               	bcf	3,5	;RP0=0, select bank0
  1443  0E0F  1303               	bcf	3,6	;RP1=0, select bank0
  1444  0E10  1785               	bsf	5,7	;volatile
  1445                           
  1446                           ;Main_Otto.c: 84:             _delay((unsigned long)((1000)*(1000000/4000.0)));
  1447  0E11  3002               	movlw	2
  1448  0E12  1683               	bsf	3,5	;RP0=1, select bank1
  1449  0E13  1303               	bcf	3,6	;RP1=0, select bank1
  1450  0E14  00C1               	movwf	(??_isr^(0+128)+2)
  1451  0E15  3045               	movlw	69
  1452  0E16  00C0               	movwf	(??_isr^(0+128)+1)
  1453  0E17  30A9               	movlw	169
  1454  0E18  00BF               	movwf	??_isr^(0+128)
  1455  0E19                     u319_27:
  1456  0E19  0BBF               	decfsz	??_isr^(0+128),f
  1457  0E1A  2E19               	goto	u319_27
  1458  0E1B  0BC0               	decfsz	(??_isr^(0+128)+1),f
  1459  0E1C  2E19               	goto	u319_27
  1460  0E1D  0BC1               	decfsz	(??_isr^(0+128)+2),f
  1461  0E1E  2E19               	goto	u319_27
  1462  0E1F                     i1l2326:
  1463                           
  1464                           ;Main_Otto.c: 85:             if(SSPSTATbits.BF){
  1465  0E1F  1683               	bsf	3,5	;RP0=1, select bank1
  1466  0E20  1303               	bcf	3,6	;RP1=0, select bank1
  1467  0E21  1C14               	btfss	20,0	;volatile
  1468  0E22  2E24               	goto	u301_21
  1469  0E23  2E25               	goto	u301_20
  1470  0E24                     u301_21:
  1471  0E24  2F06               	goto	i1l2362
  1472  0E25                     u301_20:
  1473  0E25                     i1l2328:
  1474                           
  1475                           ;Main_Otto.c: 86:                 SSPBUF = POT_1;
  1476  0E25  0832               	movf	_POT_1^(0+128),w
  1477  0E26  1283               	bcf	3,5	;RP0=0, select bank0
  1478  0E27  1303               	bcf	3,6	;RP1=0, select bank0
  1479  0E28  0093               	movwf	19	;volatile
  1480  0E29  2F06               	goto	i1l2362
  1481  0E2A                     i1l2330:
  1482  0E2A  1283               	bcf	3,5	;RP0=0, select bank0
  1483  0E2B  1303               	bcf	3,6	;RP1=0, select bank0
  1484  0E2C  0C1F               	rrf	31,w	;volatile
  1485  0E2D  1683               	bsf	3,5	;RP0=1, select bank1
  1486  0E2E  1303               	bcf	3,6	;RP1=0, select bank1
  1487  0E2F  00BF               	movwf	??_isr^(0+128)
  1488  0E30  0C3F               	rrf	??_isr^(0+128),w
  1489  0E31  390F               	andlw	15
  1490  0E32  3A01               	xorlw	1
  1491  0E33  1D03               	skipz
  1492  0E34  2E36               	goto	u302_21
  1493  0E35  2E37               	goto	u302_20
  1494  0E36                     u302_21:
  1495  0E36  2E5B               	goto	i1l2340
  1496  0E37                     u302_20:
  1497  0E37                     i1l2332:
  1498                           
  1499                           ;Main_Otto.c: 90:             POT_2 = ADRESH;
  1500  0E37  1283               	bcf	3,5	;RP0=0, select bank0
  1501  0E38  1303               	bcf	3,6	;RP1=0, select bank0
  1502  0E39  081E               	movf	30,w	;volatile
  1503  0E3A  1683               	bsf	3,5	;RP0=1, select bank1
  1504  0E3B  1303               	bcf	3,6	;RP1=0, select bank1
  1505  0E3C  00BF               	movwf	??_isr^(0+128)
  1506  0E3D  083F               	movf	??_isr^(0+128),w
  1507  0E3E  00B1               	movwf	_POT_2^(0+128)
  1508  0E3F                     i1l2334:
  1509                           
  1510                           ;Main_Otto.c: 91:             PORTAbits.RA7 = 1;
  1511  0E3F  1283               	bcf	3,5	;RP0=0, select bank0
  1512  0E40  1303               	bcf	3,6	;RP1=0, select bank0
  1513  0E41  1785               	bsf	5,7	;volatile
  1514                           
  1515                           ;Main_Otto.c: 92:             _delay((unsigned long)((1000)*(1000000/4000.0)));
  1516  0E42  3002               	movlw	2
  1517  0E43  1683               	bsf	3,5	;RP0=1, select bank1
  1518  0E44  1303               	bcf	3,6	;RP1=0, select bank1
  1519  0E45  00C1               	movwf	(??_isr^(0+128)+2)
  1520  0E46  3045               	movlw	69
  1521  0E47  00C0               	movwf	(??_isr^(0+128)+1)
  1522  0E48  30A9               	movlw	169
  1523  0E49  00BF               	movwf	??_isr^(0+128)
  1524  0E4A                     u320_27:
  1525  0E4A  0BBF               	decfsz	??_isr^(0+128),f
  1526  0E4B  2E4A               	goto	u320_27
  1527  0E4C  0BC0               	decfsz	(??_isr^(0+128)+1),f
  1528  0E4D  2E4A               	goto	u320_27
  1529  0E4E  0BC1               	decfsz	(??_isr^(0+128)+2),f
  1530  0E4F  2E4A               	goto	u320_27
  1531  0E50                     i1l2336:
  1532                           
  1533                           ;Main_Otto.c: 93:             if(SSPSTATbits.BF){
  1534  0E50  1683               	bsf	3,5	;RP0=1, select bank1
  1535  0E51  1303               	bcf	3,6	;RP1=0, select bank1
  1536  0E52  1C14               	btfss	20,0	;volatile
  1537  0E53  2E55               	goto	u303_21
  1538  0E54  2E56               	goto	u303_20
  1539  0E55                     u303_21:
  1540  0E55  2F06               	goto	i1l2362
  1541  0E56                     u303_20:
  1542  0E56                     i1l2338:
  1543                           
  1544                           ;Main_Otto.c: 94:                 SSPBUF = POT_2;
  1545  0E56  0831               	movf	_POT_2^(0+128),w
  1546  0E57  1283               	bcf	3,5	;RP0=0, select bank0
  1547  0E58  1303               	bcf	3,6	;RP1=0, select bank0
  1548  0E59  0093               	movwf	19	;volatile
  1549  0E5A  2F06               	goto	i1l2362
  1550  0E5B                     i1l2340:
  1551  0E5B  1283               	bcf	3,5	;RP0=0, select bank0
  1552  0E5C  1303               	bcf	3,6	;RP1=0, select bank0
  1553  0E5D  0C1F               	rrf	31,w	;volatile
  1554  0E5E  1683               	bsf	3,5	;RP0=1, select bank1
  1555  0E5F  1303               	bcf	3,6	;RP1=0, select bank1
  1556  0E60  00BF               	movwf	??_isr^(0+128)
  1557  0E61  0C3F               	rrf	??_isr^(0+128),w
  1558  0E62  390F               	andlw	15
  1559  0E63  3A02               	xorlw	2
  1560  0E64  1D03               	skipz
  1561  0E65  2E67               	goto	u304_21
  1562  0E66  2E68               	goto	u304_20
  1563  0E67                     u304_21:
  1564  0E67  2EA8               	goto	i1l2350
  1565  0E68                     u304_20:
  1566  0E68                     i1l2342:
  1567                           
  1568                           ;Main_Otto.c: 98:             POT_3 = ADRESH;
  1569  0E68  1283               	bcf	3,5	;RP0=0, select bank0
  1570  0E69  1303               	bcf	3,6	;RP1=0, select bank0
  1571  0E6A  081E               	movf	30,w	;volatile
  1572  0E6B  1683               	bsf	3,5	;RP0=1, select bank1
  1573  0E6C  1303               	bcf	3,6	;RP1=0, select bank1
  1574  0E6D  00BF               	movwf	??_isr^(0+128)
  1575  0E6E  083F               	movf	??_isr^(0+128),w
  1576  0E6F  00B0               	movwf	_POT_3^(0+128)
  1577  0E70                     i1l2344:
  1578                           
  1579                           ;Main_Otto.c: 99:             CCPR = map(POT_3, 0, 255, 0, 200);
  1580  0E70  01B9               	clrf	map@x0^(0+128)
  1581  0E71  30FF               	movlw	255
  1582  0E72  00BF               	movwf	??_isr^(0+128)
  1583  0E73  083F               	movf	??_isr^(0+128),w
  1584  0E74  00BA               	movwf	map@x1^(0+128)
  1585  0E75  3000               	movlw	0
  1586  0E76  00BB               	movwf	map@y0^(0+128)
  1587  0E77  00BC               	movwf	(map@y0+1)^(0+128)
  1588  0E78  30C8               	movlw	200
  1589  0E79  00BD               	movwf	map@y1^(0+128)
  1590  0E7A  3000               	movlw	0
  1591  0E7B  00BE               	movwf	(map@y1^(0+128)+1)
  1592  0E7C  0830               	movf	_POT_3^(0+128),w
  1593  0E7D  120A  158A  23D6  120A  158A  	fcall	_map
  1594  0E82  1683               	bsf	3,5	;RP0=1, select bank1
  1595  0E83  1303               	bcf	3,6	;RP1=0, select bank1
  1596  0E84  083A               	movf	(?_map+1)^(0+128),w
  1597  0E85  00A3               	movwf	(_CCPR+1)^(0+128)
  1598  0E86  0839               	movf	?_map^(0+128),w
  1599  0E87  00A2               	movwf	_CCPR^(0+128)
  1600  0E88                     i1l2346:
  1601                           
  1602                           ;Main_Otto.c: 100:             CCPR1L = (uint8_t)(CCPR>>2);
  1603  0E88  0823               	movf	(_CCPR+1)^(0+128),w
  1604  0E89  00C0               	movwf	(??_isr^(0+128)+1)
  1605  0E8A  0822               	movf	_CCPR^(0+128),w
  1606  0E8B  00BF               	movwf	??_isr^(0+128)
  1607  0E8C  1003               	clrc
  1608  0E8D  0CC0               	rrf	(??_isr^(0+128)+1),f
  1609  0E8E  0CBF               	rrf	??_isr^(0+128),f
  1610  0E8F  1003               	clrc
  1611  0E90  0CC0               	rrf	(??_isr^(0+128)+1),f
  1612  0E91  0CBF               	rrf	??_isr^(0+128),f
  1613  0E92  083F               	movf	??_isr^(0+128),w
  1614  0E93  1283               	bcf	3,5	;RP0=0, select bank0
  1615  0E94  1303               	bcf	3,6	;RP1=0, select bank0
  1616  0E95  0095               	movwf	21	;volatile
  1617  0E96                     i1l2348:
  1618                           
  1619                           ;Main_Otto.c: 101:             CCP1CONbits.DC1B = CCPR & 0b11;
  1620  0E96  1683               	bsf	3,5	;RP0=1, select bank1
  1621  0E97  1303               	bcf	3,6	;RP1=0, select bank1
  1622  0E98  0822               	movf	_CCPR^(0+128),w
  1623  0E99  3903               	andlw	3
  1624  0E9A  00BF               	movwf	??_isr^(0+128)
  1625  0E9B  0EBF               	swapf	??_isr^(0+128),f
  1626  0E9C  1283               	bcf	3,5	;RP0=0, select bank0
  1627  0E9D  1303               	bcf	3,6	;RP1=0, select bank0
  1628  0E9E  0817               	movf	23,w	;volatile
  1629  0E9F  1683               	bsf	3,5	;RP0=1, select bank1
  1630  0EA0  1303               	bcf	3,6	;RP1=0, select bank1
  1631  0EA1  063F               	xorwf	??_isr^(0+128),w
  1632  0EA2  39CF               	andlw	-49
  1633  0EA3  063F               	xorwf	??_isr^(0+128),w
  1634  0EA4  1283               	bcf	3,5	;RP0=0, select bank0
  1635  0EA5  1303               	bcf	3,6	;RP1=0, select bank0
  1636  0EA6  0097               	movwf	23	;volatile
  1637                           
  1638                           ;Main_Otto.c: 102:         }
  1639  0EA7  2F06               	goto	i1l2362
  1640  0EA8                     i1l2350:
  1641  0EA8  1283               	bcf	3,5	;RP0=0, select bank0
  1642  0EA9  1303               	bcf	3,6	;RP1=0, select bank0
  1643  0EAA  0C1F               	rrf	31,w	;volatile
  1644  0EAB  1683               	bsf	3,5	;RP0=1, select bank1
  1645  0EAC  1303               	bcf	3,6	;RP1=0, select bank1
  1646  0EAD  00BF               	movwf	??_isr^(0+128)
  1647  0EAE  0C3F               	rrf	??_isr^(0+128),w
  1648  0EAF  390F               	andlw	15
  1649  0EB0  3A03               	xorlw	3
  1650  0EB1  1D03               	skipz
  1651  0EB2  2EB4               	goto	u305_21
  1652  0EB3  2EB5               	goto	u305_20
  1653  0EB4                     u305_21:
  1654  0EB4  2F06               	goto	i1l2362
  1655  0EB5                     u305_20:
  1656  0EB5                     i1l2352:
  1657                           
  1658                           ;Main_Otto.c: 104:             POT_4 = ADRESH;
  1659  0EB5  1283               	bcf	3,5	;RP0=0, select bank0
  1660  0EB6  1303               	bcf	3,6	;RP1=0, select bank0
  1661  0EB7  081E               	movf	30,w	;volatile
  1662  0EB8  1683               	bsf	3,5	;RP0=1, select bank1
  1663  0EB9  1303               	bcf	3,6	;RP1=0, select bank1
  1664  0EBA  00BF               	movwf	??_isr^(0+128)
  1665  0EBB  083F               	movf	??_isr^(0+128),w
  1666  0EBC  00AF               	movwf	_POT_4^(0+128)
  1667  0EBD                     i1l2354:
  1668                           
  1669                           ;Main_Otto.c: 105:             CCPR_2 = map(POT_4, 0, 255, 0, 200);
  1670  0EBD  01B9               	clrf	map@x0^(0+128)
  1671  0EBE  30FF               	movlw	255
  1672  0EBF  00BF               	movwf	??_isr^(0+128)
  1673  0EC0  083F               	movf	??_isr^(0+128),w
  1674  0EC1  00BA               	movwf	map@x1^(0+128)
  1675  0EC2  3000               	movlw	0
  1676  0EC3  00BB               	movwf	map@y0^(0+128)
  1677  0EC4  00BC               	movwf	(map@y0+1)^(0+128)
  1678  0EC5  30C8               	movlw	200
  1679  0EC6  00BD               	movwf	map@y1^(0+128)
  1680  0EC7  3000               	movlw	0
  1681  0EC8  00BE               	movwf	(map@y1^(0+128)+1)
  1682  0EC9  082F               	movf	_POT_4^(0+128),w
  1683  0ECA  120A  158A  23D6  120A  158A  	fcall	_map
  1684  0ECF  1683               	bsf	3,5	;RP0=1, select bank1
  1685  0ED0  1303               	bcf	3,6	;RP1=0, select bank1
  1686  0ED1  083A               	movf	(?_map+1)^(0+128),w
  1687  0ED2  00A1               	movwf	(_CCPR_2+1)^(0+128)
  1688  0ED3  0839               	movf	?_map^(0+128),w
  1689  0ED4  00A0               	movwf	_CCPR_2^(0+128)
  1690  0ED5                     i1l2356:
  1691                           
  1692                           ;Main_Otto.c: 106:             CCPR2L = (uint8_t)(CCPR_2>>2);
  1693  0ED5  0821               	movf	(_CCPR_2+1)^(0+128),w
  1694  0ED6  00C0               	movwf	(??_isr^(0+128)+1)
  1695  0ED7  0820               	movf	_CCPR_2^(0+128),w
  1696  0ED8  00BF               	movwf	??_isr^(0+128)
  1697  0ED9  1003               	clrc
  1698  0EDA  0CC0               	rrf	(??_isr^(0+128)+1),f
  1699  0EDB  0CBF               	rrf	??_isr^(0+128),f
  1700  0EDC  1003               	clrc
  1701  0EDD  0CC0               	rrf	(??_isr^(0+128)+1),f
  1702  0EDE  0CBF               	rrf	??_isr^(0+128),f
  1703  0EDF  083F               	movf	??_isr^(0+128),w
  1704  0EE0  1283               	bcf	3,5	;RP0=0, select bank0
  1705  0EE1  1303               	bcf	3,6	;RP1=0, select bank0
  1706  0EE2  009B               	movwf	27	;volatile
  1707  0EE3                     i1l2358:
  1708                           
  1709                           ;Main_Otto.c: 107:             CCP2CONbits.DC2B0 = CCPR_2 & 0b11;
  1710  0EE3  1683               	bsf	3,5	;RP0=1, select bank1
  1711  0EE4  1303               	bcf	3,6	;RP1=0, select bank1
  1712  0EE5  0820               	movf	_CCPR_2^(0+128),w
  1713  0EE6  3903               	andlw	3
  1714  0EE7  00BF               	movwf	??_isr^(0+128)
  1715  0EE8  0EBF               	swapf	??_isr^(0+128),f
  1716  0EE9  1283               	bcf	3,5	;RP0=0, select bank0
  1717  0EEA  1303               	bcf	3,6	;RP1=0, select bank0
  1718  0EEB  081D               	movf	29,w	;volatile
  1719  0EEC  1683               	bsf	3,5	;RP0=1, select bank1
  1720  0EED  1303               	bcf	3,6	;RP1=0, select bank1
  1721  0EEE  063F               	xorwf	??_isr^(0+128),w
  1722  0EEF  39EF               	andlw	-17
  1723  0EF0  063F               	xorwf	??_isr^(0+128),w
  1724  0EF1  1283               	bcf	3,5	;RP0=0, select bank0
  1725  0EF2  1303               	bcf	3,6	;RP1=0, select bank0
  1726  0EF3  009D               	movwf	29	;volatile
  1727  0EF4                     i1l2360:
  1728                           
  1729                           ;Main_Otto.c: 108:             CCP2CONbits.DC2B1 = CCPR_2 & 0b11;
  1730  0EF4  1683               	bsf	3,5	;RP0=1, select bank1
  1731  0EF5  1303               	bcf	3,6	;RP1=0, select bank1
  1732  0EF6  0820               	movf	_CCPR_2^(0+128),w
  1733  0EF7  3903               	andlw	3
  1734  0EF8  00BF               	movwf	??_isr^(0+128)
  1735  0EF9  0EBF               	swapf	??_isr^(0+128),f
  1736  0EFA  0DBF               	rlf	??_isr^(0+128),f
  1737  0EFB  1283               	bcf	3,5	;RP0=0, select bank0
  1738  0EFC  1303               	bcf	3,6	;RP1=0, select bank0
  1739  0EFD  081D               	movf	29,w	;volatile
  1740  0EFE  1683               	bsf	3,5	;RP0=1, select bank1
  1741  0EFF  1303               	bcf	3,6	;RP1=0, select bank1
  1742  0F00  063F               	xorwf	??_isr^(0+128),w
  1743  0F01  39DF               	andlw	-33
  1744  0F02  063F               	xorwf	??_isr^(0+128),w
  1745  0F03  1283               	bcf	3,5	;RP0=0, select bank0
  1746  0F04  1303               	bcf	3,6	;RP1=0, select bank0
  1747  0F05  009D               	movwf	29	;volatile
  1748  0F06                     i1l2362:
  1749                           
  1750                           ;Main_Otto.c: 110:         PIR1bits.ADIF = 0;
  1751  0F06  1283               	bcf	3,5	;RP0=0, select bank0
  1752  0F07  130C               	bcf	12,6	;volatile
  1753  0F08                     i1l2364:
  1754                           
  1755                           ;Main_Otto.c: 112:     if(INTCONbits.RBIF){
  1756  0F08  1C0B               	btfss	11,0	;volatile
  1757  0F09  2F0B               	goto	u306_21
  1758  0F0A  2F0C               	goto	u306_20
  1759  0F0B                     u306_21:
  1760  0F0B  2FF5               	goto	i1l165
  1761  0F0C                     u306_20:
  1762  0F0C                     i1l2366:
  1763                           
  1764                           ;Main_Otto.c: 113:         if (!RB0)
  1765  0F0C  1806               	btfsc	6,0	;volatile
  1766  0F0D  2F0F               	goto	u307_21
  1767  0F0E  2F10               	goto	u307_20
  1768  0F0F                     u307_21:
  1769  0F0F  2F40               	goto	i1l2370
  1770  0F10                     u307_20:
  1771  0F10                     i1l2368:
  1772                           
  1773                           ;Main_Otto.c: 114:         {;Main_Otto.c: 115:            write_EEPROM(address_pi1, POT_
      +                          1);
  1774  0F10  1683               	bsf	3,5	;RP0=1, select bank1
  1775  0F11  1303               	bcf	3,6	;RP1=0, select bank1
  1776  0F12  0832               	movf	_POT_1^(0+128),w
  1777  0F13  00BF               	movwf	??_isr^(0+128)
  1778  0F14  083F               	movf	??_isr^(0+128),w
  1779  0F15  00F0               	movwf	write_EEPROM@data
  1780  0F16  082D               	movf	_address_pi1^(0+128),w
  1781  0F17  120A  158A  225B  120A  158A  	fcall	_write_EEPROM
  1782                           
  1783                           ;Main_Otto.c: 116:            write_EEPROM(address_pr1, POT_2);
  1784  0F1C  1683               	bsf	3,5	;RP0=1, select bank1
  1785  0F1D  1303               	bcf	3,6	;RP1=0, select bank1
  1786  0F1E  0831               	movf	_POT_2^(0+128),w
  1787  0F1F  00BF               	movwf	??_isr^(0+128)
  1788  0F20  083F               	movf	??_isr^(0+128),w
  1789  0F21  00F0               	movwf	write_EEPROM@data
  1790  0F22  082C               	movf	_address_pr1^(0+128),w
  1791  0F23  120A  158A  225B  120A  158A  	fcall	_write_EEPROM
  1792                           
  1793                           ;Main_Otto.c: 117:            write_EEPROM(address_ci1, POT_3);
  1794  0F28  1683               	bsf	3,5	;RP0=1, select bank1
  1795  0F29  1303               	bcf	3,6	;RP1=0, select bank1
  1796  0F2A  0830               	movf	_POT_3^(0+128),w
  1797  0F2B  00BF               	movwf	??_isr^(0+128)
  1798  0F2C  083F               	movf	??_isr^(0+128),w
  1799  0F2D  00F0               	movwf	write_EEPROM@data
  1800  0F2E  082B               	movf	_address_ci1^(0+128),w
  1801  0F2F  120A  158A  225B  120A  158A  	fcall	_write_EEPROM
  1802                           
  1803                           ;Main_Otto.c: 118:            write_EEPROM(address_cr1, POT_4);
  1804  0F34  1683               	bsf	3,5	;RP0=1, select bank1
  1805  0F35  1303               	bcf	3,6	;RP1=0, select bank1
  1806  0F36  082F               	movf	_POT_4^(0+128),w
  1807  0F37  00BF               	movwf	??_isr^(0+128)
  1808  0F38  083F               	movf	??_isr^(0+128),w
  1809  0F39  00F0               	movwf	write_EEPROM@data
  1810  0F3A  082A               	movf	_address_cr1^(0+128),w
  1811  0F3B  120A  158A  225B  120A  158A  	fcall	_write_EEPROM
  1812  0F40                     i1l2370:
  1813                           
  1814                           ;Main_Otto.c: 120:         if (!RB1)
  1815  0F40  1283               	bcf	3,5	;RP0=0, select bank0
  1816  0F41  1303               	bcf	3,6	;RP1=0, select bank0
  1817  0F42  1886               	btfsc	6,1	;volatile
  1818  0F43  2F45               	goto	u308_21
  1819  0F44  2F46               	goto	u308_20
  1820  0F45                     u308_21:
  1821  0F45  2F7A               	goto	i1l2374
  1822  0F46                     u308_20:
  1823  0F46                     i1l2372:
  1824                           
  1825                           ;Main_Otto.c: 121:         {;Main_Otto.c: 122:             CCPR = read_EEPROM(address_ci
      +                          1);
  1826  0F46  1683               	bsf	3,5	;RP0=1, select bank1
  1827  0F47  1303               	bcf	3,6	;RP1=0, select bank1
  1828  0F48  082B               	movf	_address_ci1^(0+128),w
  1829  0F49  120A  118A  27F1  120A  158A  	fcall	_read_EEPROM
  1830  0F4E  1683               	bsf	3,5	;RP0=1, select bank1
  1831  0F4F  1303               	bcf	3,6	;RP1=0, select bank1
  1832  0F50  00BF               	movwf	??_isr^(0+128)
  1833  0F51  01C0               	clrf	(??_isr^(0+128)+1)
  1834  0F52  083F               	movf	??_isr^(0+128),w
  1835  0F53  00A2               	movwf	_CCPR^(0+128)
  1836  0F54  0840               	movf	(??_isr+1)^(0+128),w
  1837  0F55  00A3               	movwf	(_CCPR+1)^(0+128)
  1838                           
  1839                           ;Main_Otto.c: 123:             CCPR_2 = read_EEPROM(address_cr1);
  1840  0F56  082A               	movf	_address_cr1^(0+128),w
  1841  0F57  120A  118A  27F1  120A  158A  	fcall	_read_EEPROM
  1842  0F5C  1683               	bsf	3,5	;RP0=1, select bank1
  1843  0F5D  1303               	bcf	3,6	;RP1=0, select bank1
  1844  0F5E  00BF               	movwf	??_isr^(0+128)
  1845  0F5F  01C0               	clrf	(??_isr^(0+128)+1)
  1846  0F60  083F               	movf	??_isr^(0+128),w
  1847  0F61  00A0               	movwf	_CCPR_2^(0+128)
  1848  0F62  0840               	movf	(??_isr+1)^(0+128),w
  1849  0F63  00A1               	movwf	(_CCPR_2+1)^(0+128)
  1850                           
  1851                           ;Main_Otto.c: 124:             POT_1 = read_EEPROM(address_pi1);
  1852  0F64  082D               	movf	_address_pi1^(0+128),w
  1853  0F65  120A  118A  27F1  120A  158A  	fcall	_read_EEPROM
  1854  0F6A  1683               	bsf	3,5	;RP0=1, select bank1
  1855  0F6B  1303               	bcf	3,6	;RP1=0, select bank1
  1856  0F6C  00BF               	movwf	??_isr^(0+128)
  1857  0F6D  083F               	movf	??_isr^(0+128),w
  1858  0F6E  00B2               	movwf	_POT_1^(0+128)
  1859                           
  1860                           ;Main_Otto.c: 125:             POT_2 = read_EEPROM(address_pr1);
  1861  0F6F  082C               	movf	_address_pr1^(0+128),w
  1862  0F70  120A  118A  27F1  120A  158A  	fcall	_read_EEPROM
  1863  0F75  1683               	bsf	3,5	;RP0=1, select bank1
  1864  0F76  1303               	bcf	3,6	;RP1=0, select bank1
  1865  0F77  00BF               	movwf	??_isr^(0+128)
  1866  0F78  083F               	movf	??_isr^(0+128),w
  1867  0F79  00B1               	movwf	_POT_2^(0+128)
  1868  0F7A                     i1l2374:
  1869                           
  1870                           ;Main_Otto.c: 127:         if (!RB2)
  1871  0F7A  1283               	bcf	3,5	;RP0=0, select bank0
  1872  0F7B  1906               	btfsc	6,2	;volatile
  1873  0F7C  2F7E               	goto	u309_21
  1874  0F7D  2F7F               	goto	u309_20
  1875  0F7E                     u309_21:
  1876  0F7E  2FAF               	goto	i1l2378
  1877  0F7F                     u309_20:
  1878  0F7F                     i1l2376:
  1879                           
  1880                           ;Main_Otto.c: 128:         {;Main_Otto.c: 129:            write_EEPROM(address_pi2, POT_
      +                          1);
  1881  0F7F  1683               	bsf	3,5	;RP0=1, select bank1
  1882  0F80  1303               	bcf	3,6	;RP1=0, select bank1
  1883  0F81  0832               	movf	_POT_1^(0+128),w
  1884  0F82  00BF               	movwf	??_isr^(0+128)
  1885  0F83  083F               	movf	??_isr^(0+128),w
  1886  0F84  00F0               	movwf	write_EEPROM@data
  1887  0F85  0829               	movf	_address_pi2^(0+128),w
  1888  0F86  120A  158A  225B  120A  158A  	fcall	_write_EEPROM
  1889                           
  1890                           ;Main_Otto.c: 130:            write_EEPROM(address_pr2, POT_2);
  1891  0F8B  1683               	bsf	3,5	;RP0=1, select bank1
  1892  0F8C  1303               	bcf	3,6	;RP1=0, select bank1
  1893  0F8D  0831               	movf	_POT_2^(0+128),w
  1894  0F8E  00BF               	movwf	??_isr^(0+128)
  1895  0F8F  083F               	movf	??_isr^(0+128),w
  1896  0F90  00F0               	movwf	write_EEPROM@data
  1897  0F91  0828               	movf	_address_pr2^(0+128),w
  1898  0F92  120A  158A  225B  120A  158A  	fcall	_write_EEPROM
  1899                           
  1900                           ;Main_Otto.c: 131:            write_EEPROM(address_ci2, POT_3);
  1901  0F97  1683               	bsf	3,5	;RP0=1, select bank1
  1902  0F98  1303               	bcf	3,6	;RP1=0, select bank1
  1903  0F99  0830               	movf	_POT_3^(0+128),w
  1904  0F9A  00BF               	movwf	??_isr^(0+128)
  1905  0F9B  083F               	movf	??_isr^(0+128),w
  1906  0F9C  00F0               	movwf	write_EEPROM@data
  1907  0F9D  0827               	movf	_address_ci2^(0+128),w
  1908  0F9E  120A  158A  225B  120A  158A  	fcall	_write_EEPROM
  1909                           
  1910                           ;Main_Otto.c: 132:            write_EEPROM(address_cr2, POT_4);
  1911  0FA3  1683               	bsf	3,5	;RP0=1, select bank1
  1912  0FA4  1303               	bcf	3,6	;RP1=0, select bank1
  1913  0FA5  082F               	movf	_POT_4^(0+128),w
  1914  0FA6  00BF               	movwf	??_isr^(0+128)
  1915  0FA7  083F               	movf	??_isr^(0+128),w
  1916  0FA8  00F0               	movwf	write_EEPROM@data
  1917  0FA9  0826               	movf	_address_cr2^(0+128),w
  1918  0FAA  120A  158A  225B  120A  158A  	fcall	_write_EEPROM
  1919  0FAF                     i1l2378:
  1920                           
  1921                           ;Main_Otto.c: 134:         if (!RB3){
  1922  0FAF  1283               	bcf	3,5	;RP0=0, select bank0
  1923  0FB0  1303               	bcf	3,6	;RP1=0, select bank0
  1924  0FB1  1986               	btfsc	6,3	;volatile
  1925  0FB2  2FB4               	goto	u310_21
  1926  0FB3  2FB5               	goto	u310_20
  1927  0FB4                     u310_21:
  1928  0FB4  2FE9               	goto	i1l2382
  1929  0FB5                     u310_20:
  1930  0FB5                     i1l2380:
  1931                           
  1932                           ;Main_Otto.c: 135:             CCPR = read_EEPROM(address_ci2);
  1933  0FB5  1683               	bsf	3,5	;RP0=1, select bank1
  1934  0FB6  1303               	bcf	3,6	;RP1=0, select bank1
  1935  0FB7  0827               	movf	_address_ci2^(0+128),w
  1936  0FB8  120A  118A  27F1  120A  158A  	fcall	_read_EEPROM
  1937  0FBD  1683               	bsf	3,5	;RP0=1, select bank1
  1938  0FBE  1303               	bcf	3,6	;RP1=0, select bank1
  1939  0FBF  00BF               	movwf	??_isr^(0+128)
  1940  0FC0  01C0               	clrf	(??_isr^(0+128)+1)
  1941  0FC1  083F               	movf	??_isr^(0+128),w
  1942  0FC2  00A2               	movwf	_CCPR^(0+128)
  1943  0FC3  0840               	movf	(??_isr+1)^(0+128),w
  1944  0FC4  00A3               	movwf	(_CCPR+1)^(0+128)
  1945                           
  1946                           ;Main_Otto.c: 136:             CCPR_2 = read_EEPROM(address_cr2);
  1947  0FC5  0826               	movf	_address_cr2^(0+128),w
  1948  0FC6  120A  118A  27F1  120A  158A  	fcall	_read_EEPROM
  1949  0FCB  1683               	bsf	3,5	;RP0=1, select bank1
  1950  0FCC  1303               	bcf	3,6	;RP1=0, select bank1
  1951  0FCD  00BF               	movwf	??_isr^(0+128)
  1952  0FCE  01C0               	clrf	(??_isr^(0+128)+1)
  1953  0FCF  083F               	movf	??_isr^(0+128),w
  1954  0FD0  00A0               	movwf	_CCPR_2^(0+128)
  1955  0FD1  0840               	movf	(??_isr+1)^(0+128),w
  1956  0FD2  00A1               	movwf	(_CCPR_2+1)^(0+128)
  1957                           
  1958                           ;Main_Otto.c: 137:             POT_1 = read_EEPROM(address_pi2);
  1959  0FD3  0829               	movf	_address_pi2^(0+128),w
  1960  0FD4  120A  118A  27F1  120A  158A  	fcall	_read_EEPROM
  1961  0FD9  1683               	bsf	3,5	;RP0=1, select bank1
  1962  0FDA  1303               	bcf	3,6	;RP1=0, select bank1
  1963  0FDB  00BF               	movwf	??_isr^(0+128)
  1964  0FDC  083F               	movf	??_isr^(0+128),w
  1965  0FDD  00B2               	movwf	_POT_1^(0+128)
  1966                           
  1967                           ;Main_Otto.c: 138:             POT_2 = read_EEPROM(address_pr2);
  1968  0FDE  0828               	movf	_address_pr2^(0+128),w
  1969  0FDF  120A  118A  27F1  120A  158A  	fcall	_read_EEPROM
  1970  0FE4  1683               	bsf	3,5	;RP0=1, select bank1
  1971  0FE5  1303               	bcf	3,6	;RP1=0, select bank1
  1972  0FE6  00BF               	movwf	??_isr^(0+128)
  1973  0FE7  083F               	movf	??_isr^(0+128),w
  1974  0FE8  00B1               	movwf	_POT_2^(0+128)
  1975  0FE9                     i1l2382:
  1976                           
  1977                           ;Main_Otto.c: 140:         if (!RB4){
  1978  0FE9  1283               	bcf	3,5	;RP0=0, select bank0
  1979  0FEA  1A06               	btfsc	6,4	;volatile
  1980  0FEB  2FED               	goto	u311_21
  1981  0FEC  2FEE               	goto	u311_20
  1982  0FED                     u311_21:
  1983  0FED  2FF4               	goto	i1l2386
  1984  0FEE                     u311_20:
  1985  0FEE                     i1l2384:
  1986                           
  1987                           ;Main_Otto.c: 141:             cont++;
  1988  0FEE  3001               	movlw	1
  1989  0FEF  1683               	bsf	3,5	;RP0=1, select bank1
  1990  0FF0  1303               	bcf	3,6	;RP1=0, select bank1
  1991  0FF1  00BF               	movwf	??_isr^(0+128)
  1992  0FF2  083F               	movf	??_isr^(0+128),w
  1993  0FF3  07AE               	addwf	_cont^(0+128),f
  1994  0FF4                     i1l2386:
  1995                           
  1996                           ;Main_Otto.c: 143:         INTCONbits.RBIF = 0;
  1997  0FF4  100B               	bcf	11,0	;volatile
  1998  0FF5                     i1l165:
  1999  0FF5  1683               	bsf	3,5	;RP0=1, select bank1
  2000  0FF6  1303               	bcf	3,6	;RP1=0, select bank1
  2001  0FF7  0844               	movf	(??_isr+5)^(0+128),w
  2002  0FF8  00FF               	movwf	btemp+1
  2003  0FF9  0843               	movf	(??_isr+4)^(0+128),w
  2004  0FFA  008A               	movwf	10
  2005  0FFB  0E42               	swapf	(??_isr+3)^(0+128),w
  2006  0FFC  0083               	movwf	3
  2007  0FFD  0EFE               	swapf	btemp,f
  2008  0FFE  0E7E               	swapf	btemp,w
  2009  0FFF  0009               	retfie
  2010  1000                     __end_of_isr:
  2011                           
  2012                           	psect	intentry
  2013  0004                     __pintentry:	
  2014                           ;incstack = 0
  2015                           ; Regs used in _isr: [wreg+status,2+status,0+btemp+1+pclath+cstack]
  2016                           
  2017  0004                     interrupt_function:
  2018  007E                     saved_w	set	btemp
  2019  0004  00FE               	movwf	btemp
  2020  0005  0E03               	swapf	3,w
  2021  0006  1683               	bsf	3,5	;RP0=1, select bank1
  2022  0007  1303               	bcf	3,6	;RP1=0, select bank1
  2023  0008  00C2               	movwf	(??_isr+3)^(0+128)
  2024  0009  080A               	movf	10,w
  2025  000A  00C3               	movwf	(??_isr+4)^(0+128)
  2026  000B  087F               	movf	btemp+1,w
  2027  000C  00C4               	movwf	(??_isr+5)^(0+128)
  2028  000D  120A  158A  2DF5   	ljmp	_isr
  2029                           
  2030                           	psect	text3
  2031  0A5B                     __ptext3:	
  2032 ;; *************** function _write_EEPROM *****************
  2033 ;; Defined at:
  2034 ;;		line 336 in file "Main_Otto.c"
  2035 ;; Parameters:    Size  Location     Type
  2036 ;;  address         1    wreg     unsigned char 
  2037 ;;  data            1    0[COMMON] unsigned char 
  2038 ;; Auto vars:     Size  Location     Type
  2039 ;;  address         1    1[COMMON] unsigned char 
  2040 ;; Return value:  Size  Location     Type
  2041 ;;                  1    wreg      void 
  2042 ;; Registers used:
  2043 ;;		wreg
  2044 ;; Tracked objects:
  2045 ;;		On entry : 0/0
  2046 ;;		On exit  : 0/0
  2047 ;;		Unchanged: 0/0
  2048 ;; Data sizes:     COMMON   BANK0   BANK1   BANK3   BANK2
  2049 ;;      Params:         1       0       0       0       0
  2050 ;;      Locals:         1       0       0       0       0
  2051 ;;      Temps:          0       0       0       0       0
  2052 ;;      Totals:         2       0       0       0       0
  2053 ;;Total ram usage:        2 bytes
  2054 ;; Hardware stack levels used: 1
  2055 ;; This function calls:
  2056 ;;		Nothing
  2057 ;; This function is called by:
  2058 ;;		_isr
  2059 ;; This function uses a non-reentrant model
  2060 ;;
  2061                           
  2062  0A5B                     _write_EEPROM:	
  2063                           ;psect for function _write_EEPROM
  2064                           
  2065                           
  2066                           ;incstack = 0
  2067                           ; Regs used in _write_EEPROM: [wreg]
  2068                           ;write_EEPROM@address stored from wreg
  2069  0A5B  00F1               	movwf	write_EEPROM@address
  2070  0A5C                     i1l2206:
  2071                           
  2072                           ;Main_Otto.c: 337:     EEADR = address;
  2073  0A5C  0871               	movf	write_EEPROM@address,w
  2074  0A5D  1283               	bcf	3,5	;RP0=0, select bank2
  2075  0A5E  1703               	bsf	3,6	;RP1=1, select bank2
  2076  0A5F  008D               	movwf	13	;volatile
  2077                           
  2078                           ;Main_Otto.c: 338:     EEDAT = data;
  2079  0A60  0870               	movf	write_EEPROM@data,w
  2080  0A61  008C               	movwf	12	;volatile
  2081  0A62                     i1l2208:
  2082                           
  2083                           ;Main_Otto.c: 339:     EECON1bits.EEPGD = 0;
  2084  0A62  1683               	bsf	3,5	;RP0=1, select bank3
  2085  0A63  1703               	bsf	3,6	;RP1=1, select bank3
  2086  0A64  138C               	bcf	12,7	;volsfr
  2087  0A65                     i1l2210:
  2088                           
  2089                           ;Main_Otto.c: 340:     EECON1bits.WREN = 1;
  2090  0A65  150C               	bsf	12,2	;volsfr
  2091  0A66                     i1l2212:
  2092                           
  2093                           ;Main_Otto.c: 342:     INTCONbits.GIE = 0;
  2094  0A66  138B               	bcf	11,7	;volatile
  2095                           
  2096                           ;Main_Otto.c: 343:     EECON2 = 0x55;
  2097  0A67  3055               	movlw	85
  2098  0A68  008D               	movwf	13	;volsfr
  2099                           
  2100                           ;Main_Otto.c: 344:     EECON2 = 0xAA;
  2101  0A69  30AA               	movlw	170
  2102  0A6A  008D               	movwf	13	;volsfr
  2103  0A6B                     i1l2214:
  2104                           
  2105                           ;Main_Otto.c: 346:     EECON1bits.WR = 1;
  2106  0A6B  148C               	bsf	12,1	;volsfr
  2107  0A6C                     i1l2216:
  2108                           
  2109                           ;Main_Otto.c: 348:     EECON1bits.WREN = 0;
  2110  0A6C  110C               	bcf	12,2	;volsfr
  2111  0A6D                     i1l2218:
  2112                           
  2113                           ;Main_Otto.c: 349:     INTCONbits.RBIF = 0;
  2114  0A6D  100B               	bcf	11,0	;volatile
  2115  0A6E                     i1l2220:
  2116                           
  2117                           ;Main_Otto.c: 350:     INTCONbits.GIE = 1;
  2118  0A6E  178B               	bsf	11,7	;volatile
  2119  0A6F                     i1l202:
  2120  0A6F  0008               	return
  2121  0A70                     __end_of_write_EEPROM:
  2122                           
  2123                           	psect	text4
  2124  07F1                     __ptext4:	
  2125 ;; *************** function _read_EEPROM *****************
  2126 ;; Defined at:
  2127 ;;		line 329 in file "Main_Otto.c"
  2128 ;; Parameters:    Size  Location     Type
  2129 ;;  address         1    wreg     unsigned char 
  2130 ;; Auto vars:     Size  Location     Type
  2131 ;;  address         1    0[COMMON] unsigned char 
  2132 ;; Return value:  Size  Location     Type
  2133 ;;                  1    wreg      unsigned char 
  2134 ;; Registers used:
  2135 ;;		wreg
  2136 ;; Tracked objects:
  2137 ;;		On entry : 0/0
  2138 ;;		On exit  : 0/0
  2139 ;;		Unchanged: 0/0
  2140 ;; Data sizes:     COMMON   BANK0   BANK1   BANK3   BANK2
  2141 ;;      Params:         0       0       0       0       0
  2142 ;;      Locals:         1       0       0       0       0
  2143 ;;      Temps:          0       0       0       0       0
  2144 ;;      Totals:         1       0       0       0       0
  2145 ;;Total ram usage:        1 bytes
  2146 ;; Hardware stack levels used: 1
  2147 ;; This function calls:
  2148 ;;		Nothing
  2149 ;; This function is called by:
  2150 ;;		_isr
  2151 ;; This function uses a non-reentrant model
  2152 ;;
  2153                           
  2154  07F1                     _read_EEPROM:	
  2155                           ;psect for function _read_EEPROM
  2156                           
  2157                           
  2158                           ;incstack = 0
  2159                           ; Regs used in _read_EEPROM: [wreg]
  2160                           ;read_EEPROM@address stored from wreg
  2161  07F1  00F0               	movwf	read_EEPROM@address
  2162  07F2                     i1l2222:
  2163                           
  2164                           ;Main_Otto.c: 330:     EEADR = address;
  2165  07F2  0870               	movf	read_EEPROM@address,w
  2166  07F3  1283               	bcf	3,5	;RP0=0, select bank2
  2167  07F4  1703               	bsf	3,6	;RP1=1, select bank2
  2168  07F5  008D               	movwf	13	;volatile
  2169  07F6                     i1l2224:
  2170                           
  2171                           ;Main_Otto.c: 331:     EECON1bits.EEPGD = 0;
  2172  07F6  1683               	bsf	3,5	;RP0=1, select bank3
  2173  07F7  1703               	bsf	3,6	;RP1=1, select bank3
  2174  07F8  138C               	bcf	12,7	;volsfr
  2175  07F9                     i1l2226:
  2176                           
  2177                           ;Main_Otto.c: 332:     EECON1bits.RD = 1;
  2178  07F9  140C               	bsf	12,0	;volsfr
  2179                           
  2180                           ;Main_Otto.c: 333:     return EEDAT;
  2181  07FA  1283               	bcf	3,5	;RP0=0, select bank2
  2182  07FB  1703               	bsf	3,6	;RP1=1, select bank2
  2183  07FC  080C               	movf	12,w	;volatile
  2184  07FD                     i1l199:
  2185  07FD  0008               	return
  2186  07FE                     __end_of_read_EEPROM:
  2187                           
  2188                           	psect	text5
  2189  0BD6                     __ptext5:	
  2190 ;; *************** function _map *****************
  2191 ;; Defined at:
  2192 ;;		line 324 in file "Main_Otto.c"
  2193 ;; Parameters:    Size  Location     Type
  2194 ;;  x               1    wreg     unsigned char 
  2195 ;;  x0              1    5[BANK1 ] unsigned char 
  2196 ;;  x1              1    6[BANK1 ] unsigned char 
  2197 ;;  y0              2    7[BANK1 ] unsigned short 
  2198 ;;  y1              2    9[BANK1 ] unsigned short 
  2199 ;; Auto vars:     Size  Location     Type
  2200 ;;  x               1   78[BANK0 ] unsigned char 
  2201 ;; Return value:  Size  Location     Type
  2202 ;;                  2    5[BANK1 ] unsigned short 
  2203 ;; Registers used:
  2204 ;;		wreg, status,2, status,0, btemp+1, pclath, cstack
  2205 ;; Tracked objects:
  2206 ;;		On entry : 0/0
  2207 ;;		On exit  : 0/0
  2208 ;;		Unchanged: 0/0
  2209 ;; Data sizes:     COMMON   BANK0   BANK1   BANK3   BANK2
  2210 ;;      Params:         0       0       6       0       0
  2211 ;;      Locals:         0       1       0       0       0
  2212 ;;      Temps:          0       0       0       0       0
  2213 ;;      Totals:         0       1       6       0       0
  2214 ;;Total ram usage:        7 bytes
  2215 ;; Hardware stack levels used: 1
  2216 ;; Hardware stack levels required when called: 2
  2217 ;; This function calls:
  2218 ;;		___fladd
  2219 ;;		___fldiv
  2220 ;;		___flmul
  2221 ;;		___fltol
  2222 ;;		___xxtofl
  2223 ;; This function is called by:
  2224 ;;		_isr
  2225 ;; This function uses a non-reentrant model
  2226 ;;
  2227                           
  2228  0BD6                     _map:	
  2229                           ;psect for function _map
  2230                           
  2231                           
  2232                           ;incstack = 0
  2233                           ; Regs used in _map: [wreg+status,2+status,0+btemp+1+pclath+cstack]
  2234                           ;map@x stored from wreg
  2235  0BD6  1283               	bcf	3,5	;RP0=0, select bank0
  2236  0BD7  1303               	bcf	3,6	;RP1=0, select bank0
  2237  0BD8  00EE               	movwf	map@x
  2238  0BD9                     i1l2202:
  2239                           
  2240                           ;Main_Otto.c: 324: unsigned short map(uint8_t x, uint8_t x0, uint8_t x1,;Main_Otto.c: 32
      +                          5:             unsigned short y0, unsigned short y1){;Main_Otto.c: 326:     return (unsi
      +                          gned short)(y0+((float)(y1-y0)/(x1-x0))*(x-x0));
  2241  0BD9  1683               	bsf	3,5	;RP0=1, select bank1
  2242  0BDA  1303               	bcf	3,6	;RP1=0, select bank1
  2243  0BDB  083B               	movf	map@y0^(0+128),w
  2244  0BDC  00F0               	movwf	___xxtofl@val
  2245  0BDD  083C               	movf	(map@y0+1)^(0+128),w
  2246  0BDE  00F1               	movwf	___xxtofl@val+1
  2247  0BDF  01F2               	clrf	___xxtofl@val+2
  2248  0BE0  01F3               	clrf	___xxtofl@val+3
  2249  0BE1  3000               	movlw	0
  2250  0BE2  120A  158A  253B  120A  158A  	fcall	___xxtofl
  2251  0BE7  0873               	movf	?___xxtofl+3,w
  2252  0BE8  1283               	bcf	3,5	;RP0=0, select bank0
  2253  0BE9  1303               	bcf	3,6	;RP1=0, select bank0
  2254  0BEA  00DB               	movwf	___fladd@a+3
  2255  0BEB  0872               	movf	?___xxtofl+2,w
  2256  0BEC  00DA               	movwf	___fladd@a+2
  2257  0BED  0871               	movf	?___xxtofl+1,w
  2258  0BEE  00D9               	movwf	___fladd@a+1
  2259  0BEF  0870               	movf	?___xxtofl,w
  2260  0BF0  00D8               	movwf	___fladd@a
  2261  0BF1  1683               	bsf	3,5	;RP0=1, select bank1
  2262  0BF2  1303               	bcf	3,6	;RP1=0, select bank1
  2263  0BF3  083B               	movf	map@y0^(0+128),w
  2264  0BF4  023D               	subwf	map@y1^(0+128),w
  2265  0BF5  00F0               	movwf	___xxtofl@val
  2266  0BF6  083C               	movf	(map@y0+1)^(0+128),w
  2267  0BF7  1C03               	skipc
  2268  0BF8  0A3C               	incf	(map@y0+1)^(0+128),w
  2269  0BF9  023E               	subwf	(map@y1+1)^(0+128),w
  2270  0BFA  00F1               	movwf	___xxtofl@val+1
  2271  0BFB  01F2               	clrf	___xxtofl@val+2
  2272  0BFC  01F3               	clrf	___xxtofl@val+3
  2273  0BFD  3000               	movlw	0
  2274  0BFE  120A  158A  253B  120A  158A  	fcall	___xxtofl
  2275  0C03  0873               	movf	?___xxtofl+3,w
  2276  0C04  1283               	bcf	3,5	;RP0=0, select bank0
  2277  0C05  1303               	bcf	3,6	;RP1=0, select bank0
  2278  0C06  00A7               	movwf	___fldiv@b+3
  2279  0C07  0872               	movf	?___xxtofl+2,w
  2280  0C08  00A6               	movwf	___fldiv@b+2
  2281  0C09  0871               	movf	?___xxtofl+1,w
  2282  0C0A  00A5               	movwf	___fldiv@b+1
  2283  0C0B  0870               	movf	?___xxtofl,w
  2284  0C0C  00A4               	movwf	___fldiv@b
  2285  0C0D  1683               	bsf	3,5	;RP0=1, select bank1
  2286  0C0E  1303               	bcf	3,6	;RP1=0, select bank1
  2287  0C0F  0839               	movf	map@x0^(0+128),w
  2288  0C10  023A               	subwf	map@x1^(0+128),w
  2289  0C11  00F0               	movwf	___xxtofl@val
  2290  0C12  01F1               	clrf	___xxtofl@val+1
  2291  0C13  1C03               	skipc
  2292  0C14  03F1               	decf	___xxtofl@val+1,f
  2293  0C15  01F2               	clrf	___xxtofl@val+2
  2294  0C16  1BF1               	btfsc	___xxtofl@val+1,7
  2295  0C17  03F2               	decf	___xxtofl@val+2,f
  2296  0C18  0872               	movf	___xxtofl@val+2,w
  2297  0C19  00F3               	movwf	___xxtofl@val+3
  2298  0C1A  3001               	movlw	1
  2299  0C1B  120A  158A  253B  120A  158A  	fcall	___xxtofl
  2300  0C20  0873               	movf	?___xxtofl+3,w
  2301  0C21  1283               	bcf	3,5	;RP0=0, select bank0
  2302  0C22  1303               	bcf	3,6	;RP1=0, select bank0
  2303  0C23  00A3               	movwf	___fldiv@a+3
  2304  0C24  0872               	movf	?___xxtofl+2,w
  2305  0C25  00A2               	movwf	___fldiv@a+2
  2306  0C26  0871               	movf	?___xxtofl+1,w
  2307  0C27  00A1               	movwf	___fldiv@a+1
  2308  0C28  0870               	movf	?___xxtofl,w
  2309  0C29  00A0               	movwf	___fldiv@a
  2310  0C2A  120A  118A  2614  120A  158A  	fcall	___fldiv
  2311  0C2F  1283               	bcf	3,5	;RP0=0, select bank0
  2312  0C30  1303               	bcf	3,6	;RP1=0, select bank0
  2313  0C31  0823               	movf	?___fldiv+3,w
  2314  0C32  00C1               	movwf	___flmul@a+3
  2315  0C33  0822               	movf	?___fldiv+2,w
  2316  0C34  00C0               	movwf	___flmul@a+2
  2317  0C35  0821               	movf	?___fldiv+1,w
  2318  0C36  00BF               	movwf	___flmul@a+1
  2319  0C37  0820               	movf	?___fldiv,w
  2320  0C38  00BE               	movwf	___flmul@a
  2321  0C39  1683               	bsf	3,5	;RP0=1, select bank1
  2322  0C3A  1303               	bcf	3,6	;RP1=0, select bank1
  2323  0C3B  0839               	movf	map@x0^(0+128),w
  2324  0C3C  1283               	bcf	3,5	;RP0=0, select bank0
  2325  0C3D  1303               	bcf	3,6	;RP1=0, select bank0
  2326  0C3E  026E               	subwf	map@x,w
  2327  0C3F  00F0               	movwf	___xxtofl@val
  2328  0C40  01F1               	clrf	___xxtofl@val+1
  2329  0C41  1C03               	skipc
  2330  0C42  03F1               	decf	___xxtofl@val+1,f
  2331  0C43  01F2               	clrf	___xxtofl@val+2
  2332  0C44  1BF1               	btfsc	___xxtofl@val+1,7
  2333  0C45  03F2               	decf	___xxtofl@val+2,f
  2334  0C46  0872               	movf	___xxtofl@val+2,w
  2335  0C47  00F3               	movwf	___xxtofl@val+3
  2336  0C48  3001               	movlw	1
  2337  0C49  120A  158A  253B  120A  158A  	fcall	___xxtofl
  2338  0C4E  0873               	movf	?___xxtofl+3,w
  2339  0C4F  1283               	bcf	3,5	;RP0=0, select bank0
  2340  0C50  1303               	bcf	3,6	;RP1=0, select bank0
  2341  0C51  00BD               	movwf	___flmul@b+3
  2342  0C52  0872               	movf	?___xxtofl+2,w
  2343  0C53  00BC               	movwf	___flmul@b+2
  2344  0C54  0871               	movf	?___xxtofl+1,w
  2345  0C55  00BB               	movwf	___flmul@b+1
  2346  0C56  0870               	movf	?___xxtofl,w
  2347  0C57  00BA               	movwf	___flmul@b
  2348  0C58  120A  118A  202B  120A  158A  	fcall	___flmul
  2349  0C5D  1283               	bcf	3,5	;RP0=0, select bank0
  2350  0C5E  1303               	bcf	3,6	;RP1=0, select bank0
  2351  0C5F  083D               	movf	?___flmul+3,w
  2352  0C60  00D7               	movwf	___fladd@b+3
  2353  0C61  083C               	movf	?___flmul+2,w
  2354  0C62  00D6               	movwf	___fladd@b+2
  2355  0C63  083B               	movf	?___flmul+1,w
  2356  0C64  00D5               	movwf	___fladd@b+1
  2357  0C65  083A               	movf	?___flmul,w
  2358  0C66  00D4               	movwf	___fladd@b
  2359  0C67  120A  118A  238C  120A  158A  	fcall	___fladd
  2360  0C6C  1283               	bcf	3,5	;RP0=0, select bank0
  2361  0C6D  1303               	bcf	3,6	;RP1=0, select bank0
  2362  0C6E  0857               	movf	?___fladd+3,w
  2363  0C6F  00EB               	movwf	___fltol@f1+3
  2364  0C70  0856               	movf	?___fladd+2,w
  2365  0C71  00EA               	movwf	___fltol@f1+2
  2366  0C72  0855               	movf	?___fladd+1,w
  2367  0C73  00E9               	movwf	___fltol@f1+1
  2368  0C74  0854               	movf	?___fladd,w
  2369  0C75  00E8               	movwf	___fltol@f1
  2370  0C76  120A  158A  2297  120A  158A  	fcall	___fltol
  2371  0C7B  1283               	bcf	3,5	;RP0=0, select bank0
  2372  0C7C  1303               	bcf	3,6	;RP1=0, select bank0
  2373  0C7D  0869               	movf	?___fltol+1,w
  2374  0C7E  1683               	bsf	3,5	;RP0=1, select bank1
  2375  0C7F  1303               	bcf	3,6	;RP1=0, select bank1
  2376  0C80  00BA               	movwf	(?_map+1)^(0+128)
  2377  0C81  1283               	bcf	3,5	;RP0=0, select bank0
  2378  0C82  1303               	bcf	3,6	;RP1=0, select bank0
  2379  0C83  0868               	movf	?___fltol,w
  2380  0C84  1683               	bsf	3,5	;RP0=1, select bank1
  2381  0C85  1303               	bcf	3,6	;RP1=0, select bank1
  2382  0C86  00B9               	movwf	?_map^(0+128)
  2383  0C87                     i1l196:
  2384  0C87  0008               	return
  2385  0C88                     __end_of_map:
  2386                           
  2387                           	psect	text6
  2388  0D3B                     __ptext6:	
  2389 ;; *************** function ___xxtofl *****************
  2390 ;; Defined at:
  2391 ;;		line 10 in file "C:\Program Files\Microchip\xc8\v2.35\pic\sources\c90\common\xxtofl.c"
  2392 ;; Parameters:    Size  Location     Type
  2393 ;;  sign            1    wreg     unsigned char 
  2394 ;;  val             4    0[COMMON] long 
  2395 ;; Auto vars:     Size  Location     Type
  2396 ;;  sign            1    8[COMMON] unsigned char 
  2397 ;;  arg             4   10[COMMON] unsigned long 
  2398 ;;  exp             1    9[COMMON] unsigned char 
  2399 ;; Return value:  Size  Location     Type
  2400 ;;                  4    0[COMMON] unsigned char 
  2401 ;; Registers used:
  2402 ;;		wreg, status,2, status,0
  2403 ;; Tracked objects:
  2404 ;;		On entry : 0/0
  2405 ;;		On exit  : 0/0
  2406 ;;		Unchanged: 0/0
  2407 ;; Data sizes:     COMMON   BANK0   BANK1   BANK3   BANK2
  2408 ;;      Params:         4       0       0       0       0
  2409 ;;      Locals:         6       0       0       0       0
  2410 ;;      Temps:          4       0       0       0       0
  2411 ;;      Totals:        14       0       0       0       0
  2412 ;;Total ram usage:       14 bytes
  2413 ;; Hardware stack levels used: 1
  2414 ;; This function calls:
  2415 ;;		Nothing
  2416 ;; This function is called by:
  2417 ;;		_map
  2418 ;; This function uses a non-reentrant model
  2419 ;;
  2420                           
  2421  0D3B                     ___xxtofl:	
  2422                           ;psect for function ___xxtofl
  2423                           
  2424                           
  2425                           ;incstack = 0
  2426                           ; Regs used in ___xxtofl: [wreg+status,2+status,0]
  2427                           ;___xxtofl@sign stored from wreg
  2428  0D3B  00F8               	movwf	___xxtofl@sign
  2429  0D3C                     i1l2158:
  2430  0D3C  0878               	movf	___xxtofl@sign,w
  2431  0D3D  1903               	btfsc	3,2
  2432  0D3E  2D40               	goto	u284_21
  2433  0D3F  2D41               	goto	u284_20
  2434  0D40                     u284_21:
  2435  0D40  2D55               	goto	i1l2164
  2436  0D41                     u284_20:
  2437  0D41                     i1l2160:
  2438  0D41  1FF3               	btfss	___xxtofl@val+3,7
  2439  0D42  2D44               	goto	u285_21
  2440  0D43  2D45               	goto	u285_20
  2441  0D44                     u285_21:
  2442  0D44  2D55               	goto	i1l2164
  2443  0D45                     u285_20:
  2444  0D45                     i1l2162:
  2445  0D45  0970               	comf	___xxtofl@val,w
  2446  0D46  00FA               	movwf	___xxtofl@arg
  2447  0D47  0971               	comf	___xxtofl@val+1,w
  2448  0D48  00FB               	movwf	___xxtofl@arg+1
  2449  0D49  0972               	comf	___xxtofl@val+2,w
  2450  0D4A  00FC               	movwf	___xxtofl@arg+2
  2451  0D4B  0973               	comf	___xxtofl@val+3,w
  2452  0D4C  00FD               	movwf	___xxtofl@arg+3
  2453  0D4D  0AFA               	incf	___xxtofl@arg,f
  2454  0D4E  1903               	skipnz
  2455  0D4F  0AFB               	incf	___xxtofl@arg+1,f
  2456  0D50  1903               	skipnz
  2457  0D51  0AFC               	incf	___xxtofl@arg+2,f
  2458  0D52  1903               	skipnz
  2459  0D53  0AFD               	incf	___xxtofl@arg+3,f
  2460  0D54  2D5D               	goto	i1l721
  2461  0D55                     i1l2164:
  2462  0D55  0873               	movf	___xxtofl@val+3,w
  2463  0D56  00FD               	movwf	___xxtofl@arg+3
  2464  0D57  0872               	movf	___xxtofl@val+2,w
  2465  0D58  00FC               	movwf	___xxtofl@arg+2
  2466  0D59  0871               	movf	___xxtofl@val+1,w
  2467  0D5A  00FB               	movwf	___xxtofl@arg+1
  2468  0D5B  0870               	movf	___xxtofl@val,w
  2469  0D5C  00FA               	movwf	___xxtofl@arg
  2470  0D5D                     i1l721:
  2471  0D5D  0873               	movf	___xxtofl@val+3,w
  2472  0D5E  0472               	iorwf	___xxtofl@val+2,w
  2473  0D5F  0471               	iorwf	___xxtofl@val+1,w
  2474  0D60  0470               	iorwf	___xxtofl@val,w
  2475  0D61  1D03               	skipz
  2476  0D62  2D64               	goto	u286_21
  2477  0D63  2D65               	goto	u286_20
  2478  0D64                     u286_21:
  2479  0D64  2D6E               	goto	i1l2170
  2480  0D65                     u286_20:
  2481  0D65                     i1l2166:
  2482  0D65  3000               	movlw	0
  2483  0D66  00F3               	movwf	?___xxtofl+3
  2484  0D67  3000               	movlw	0
  2485  0D68  00F2               	movwf	?___xxtofl+2
  2486  0D69  3000               	movlw	0
  2487  0D6A  00F1               	movwf	?___xxtofl+1
  2488  0D6B  3000               	movlw	0
  2489  0D6C  00F0               	movwf	?___xxtofl
  2490  0D6D  2DF4               	goto	i1l723
  2491  0D6E                     i1l2170:
  2492  0D6E  3096               	movlw	150
  2493  0D6F  00F4               	movwf	??___xxtofl
  2494  0D70  0874               	movf	??___xxtofl,w
  2495  0D71  00F9               	movwf	___xxtofl@exp
  2496  0D72  2D80               	goto	i1l2174
  2497  0D73                     i1l2172:
  2498  0D73  3001               	movlw	1
  2499  0D74  00F4               	movwf	??___xxtofl
  2500  0D75  0874               	movf	??___xxtofl,w
  2501  0D76  07F9               	addwf	___xxtofl@exp,f
  2502  0D77  3001               	movlw	1
  2503  0D78                     u287_25:
  2504  0D78  1003               	clrc
  2505  0D79  0CFD               	rrf	___xxtofl@arg+3,f
  2506  0D7A  0CFC               	rrf	___xxtofl@arg+2,f
  2507  0D7B  0CFB               	rrf	___xxtofl@arg+1,f
  2508  0D7C  0CFA               	rrf	___xxtofl@arg,f
  2509  0D7D  3EFF               	addlw	-1
  2510  0D7E  1D03               	skipz
  2511  0D7F  2D78               	goto	u287_25
  2512  0D80                     i1l2174:
  2513  0D80  30FE               	movlw	254
  2514  0D81  057D               	andwf	___xxtofl@arg+3,w
  2515  0D82  1D03               	btfss	3,2
  2516  0D83  2D85               	goto	u288_21
  2517  0D84  2D86               	goto	u288_20
  2518  0D85                     u288_21:
  2519  0D85  2D73               	goto	i1l2172
  2520  0D86                     u288_20:
  2521  0D86  2DA2               	goto	i1l727
  2522  0D87                     i1l2176:
  2523  0D87  3001               	movlw	1
  2524  0D88  00F4               	movwf	??___xxtofl
  2525  0D89  0874               	movf	??___xxtofl,w
  2526  0D8A  07F9               	addwf	___xxtofl@exp,f
  2527  0D8B                     i1l2178:
  2528  0D8B  3001               	movlw	1
  2529  0D8C  07FA               	addwf	___xxtofl@arg,f
  2530  0D8D  3000               	movlw	0
  2531  0D8E  1803               	skipnc
  2532  0D8F  3001               	movlw	1
  2533  0D90  07FB               	addwf	___xxtofl@arg+1,f
  2534  0D91  3000               	movlw	0
  2535  0D92  1803               	skipnc
  2536  0D93  3001               	movlw	1
  2537  0D94  07FC               	addwf	___xxtofl@arg+2,f
  2538  0D95  3000               	movlw	0
  2539  0D96  1803               	skipnc
  2540  0D97  3001               	movlw	1
  2541  0D98  07FD               	addwf	___xxtofl@arg+3,f
  2542  0D99                     i1l2180:
  2543  0D99  3001               	movlw	1
  2544  0D9A                     u289_25:
  2545  0D9A  1003               	clrc
  2546  0D9B  0CFD               	rrf	___xxtofl@arg+3,f
  2547  0D9C  0CFC               	rrf	___xxtofl@arg+2,f
  2548  0D9D  0CFB               	rrf	___xxtofl@arg+1,f
  2549  0D9E  0CFA               	rrf	___xxtofl@arg,f
  2550  0D9F  3EFF               	addlw	-1
  2551  0DA0  1D03               	skipz
  2552  0DA1  2D9A               	goto	u289_25
  2553  0DA2                     i1l727:
  2554  0DA2  30FF               	movlw	255
  2555  0DA3  057D               	andwf	___xxtofl@arg+3,w
  2556  0DA4  1D03               	btfss	3,2
  2557  0DA5  2DA7               	goto	u290_21
  2558  0DA6  2DA8               	goto	u290_20
  2559  0DA7                     u290_21:
  2560  0DA7  2D87               	goto	i1l2176
  2561  0DA8                     u290_20:
  2562  0DA8  2DB4               	goto	i1l2184
  2563  0DA9                     i1l2182:
  2564  0DA9  3001               	movlw	1
  2565  0DAA  02F9               	subwf	___xxtofl@exp,f
  2566  0DAB  3001               	movlw	1
  2567  0DAC  00F4               	movwf	??___xxtofl
  2568  0DAD                     u291_25:
  2569  0DAD  1003               	clrc
  2570  0DAE  0DFA               	rlf	___xxtofl@arg,f
  2571  0DAF  0DFB               	rlf	___xxtofl@arg+1,f
  2572  0DB0  0DFC               	rlf	___xxtofl@arg+2,f
  2573  0DB1  0DFD               	rlf	___xxtofl@arg+3,f
  2574  0DB2  0BF4               	decfsz	??___xxtofl,f
  2575  0DB3  2DAD               	goto	u291_25
  2576  0DB4                     i1l2184:
  2577  0DB4  1BFC               	btfsc	___xxtofl@arg+2,7
  2578  0DB5  2DB7               	goto	u292_21
  2579  0DB6  2DB8               	goto	u292_20
  2580  0DB7                     u292_21:
  2581  0DB7  2DBE               	goto	i1l734
  2582  0DB8                     u292_20:
  2583  0DB8                     i1l2186:
  2584  0DB8  3002               	movlw	2
  2585  0DB9  0279               	subwf	___xxtofl@exp,w
  2586  0DBA  1803               	skipnc
  2587  0DBB  2DBD               	goto	u293_21
  2588  0DBC  2DBE               	goto	u293_20
  2589  0DBD                     u293_21:
  2590  0DBD  2DA9               	goto	i1l2182
  2591  0DBE                     u293_20:
  2592  0DBE                     i1l734:
  2593  0DBE  1879               	btfsc	___xxtofl@exp,0
  2594  0DBF  2DC1               	goto	u294_21
  2595  0DC0  2DC2               	goto	u294_20
  2596  0DC1                     u294_21:
  2597  0DC1  2DCA               	goto	i1l735
  2598  0DC2                     u294_20:
  2599  0DC2                     i1l2188:
  2600  0DC2  30FF               	movlw	255
  2601  0DC3  05FA               	andwf	___xxtofl@arg,f
  2602  0DC4  30FF               	movlw	255
  2603  0DC5  05FB               	andwf	___xxtofl@arg+1,f
  2604  0DC6  307F               	movlw	127
  2605  0DC7  05FC               	andwf	___xxtofl@arg+2,f
  2606  0DC8  30FF               	movlw	255
  2607  0DC9  05FD               	andwf	___xxtofl@arg+3,f
  2608  0DCA                     i1l735:
  2609  0DCA  1003               	clrc
  2610  0DCB  0CF9               	rrf	___xxtofl@exp,f
  2611  0DCC                     i1l2190:
  2612  0DCC  0879               	movf	___xxtofl@exp,w
  2613  0DCD  00F4               	movwf	??___xxtofl
  2614  0DCE  01F5               	clrf	??___xxtofl+1
  2615  0DCF  01F6               	clrf	??___xxtofl+2
  2616  0DD0  01F7               	clrf	??___xxtofl+3
  2617  0DD1  3018               	movlw	24
  2618  0DD2                     u295_25:
  2619  0DD2  1003               	clrc
  2620  0DD3  0DF4               	rlf	??___xxtofl,f
  2621  0DD4  0DF5               	rlf	??___xxtofl+1,f
  2622  0DD5  0DF6               	rlf	??___xxtofl+2,f
  2623  0DD6  0DF7               	rlf	??___xxtofl+3,f
  2624  0DD7                     u295_20:
  2625  0DD7  3EFF               	addlw	-1
  2626  0DD8  1D03               	skipz
  2627  0DD9  2DD2               	goto	u295_25
  2628  0DDA  0874               	movf	??___xxtofl,w
  2629  0DDB  04FA               	iorwf	___xxtofl@arg,f
  2630  0DDC  0875               	movf	??___xxtofl+1,w
  2631  0DDD  04FB               	iorwf	___xxtofl@arg+1,f
  2632  0DDE  0876               	movf	??___xxtofl+2,w
  2633  0DDF  04FC               	iorwf	___xxtofl@arg+2,f
  2634  0DE0  0877               	movf	??___xxtofl+3,w
  2635  0DE1  04FD               	iorwf	___xxtofl@arg+3,f
  2636  0DE2                     i1l2192:
  2637  0DE2  0878               	movf	___xxtofl@sign,w
  2638  0DE3  1903               	btfsc	3,2
  2639  0DE4  2DE6               	goto	u296_21
  2640  0DE5  2DE7               	goto	u296_20
  2641  0DE6                     u296_21:
  2642  0DE6  2DEC               	goto	i1l2198
  2643  0DE7                     u296_20:
  2644  0DE7                     i1l2194:
  2645  0DE7  1FF3               	btfss	___xxtofl@val+3,7
  2646  0DE8  2DEA               	goto	u297_21
  2647  0DE9  2DEB               	goto	u297_20
  2648  0DEA                     u297_21:
  2649  0DEA  2DEC               	goto	i1l2198
  2650  0DEB                     u297_20:
  2651  0DEB                     i1l2196:
  2652  0DEB  17FD               	bsf	___xxtofl@arg+3,7
  2653  0DEC                     i1l2198:
  2654  0DEC  087D               	movf	___xxtofl@arg+3,w
  2655  0DED  00F3               	movwf	?___xxtofl+3
  2656  0DEE  087C               	movf	___xxtofl@arg+2,w
  2657  0DEF  00F2               	movwf	?___xxtofl+2
  2658  0DF0  087B               	movf	___xxtofl@arg+1,w
  2659  0DF1  00F1               	movwf	?___xxtofl+1
  2660  0DF2  087A               	movf	___xxtofl@arg,w
  2661  0DF3  00F0               	movwf	?___xxtofl
  2662  0DF4                     i1l723:
  2663  0DF4  0008               	return
  2664  0DF5                     __end_of___xxtofl:
  2665                           
  2666                           	psect	text7
  2667  0A97                     __ptext7:	
  2668 ;; *************** function ___fltol *****************
  2669 ;; Defined at:
  2670 ;;		line 43 in file "C:\Program Files\Microchip\xc8\v2.35\pic\sources\c90\common\fltol.c"
  2671 ;; Parameters:    Size  Location     Type
  2672 ;;  f1              4   72[BANK0 ] unsigned char 
  2673 ;; Auto vars:     Size  Location     Type
  2674 ;;  exp1            1   77[BANK0 ] unsigned char 
  2675 ;;  sign1           1   76[BANK0 ] unsigned char 
  2676 ;; Return value:  Size  Location     Type
  2677 ;;                  4   72[BANK0 ] long 
  2678 ;; Registers used:
  2679 ;;		wreg, status,2, status,0
  2680 ;; Tracked objects:
  2681 ;;		On entry : 0/0
  2682 ;;		On exit  : 0/0
  2683 ;;		Unchanged: 0/0
  2684 ;; Data sizes:     COMMON   BANK0   BANK1   BANK3   BANK2
  2685 ;;      Params:         0       4       0       0       0
  2686 ;;      Locals:         0       2       0       0       0
  2687 ;;      Temps:          0       0       5       0       0
  2688 ;;      Totals:         0       6       5       0       0
  2689 ;;Total ram usage:       11 bytes
  2690 ;; Hardware stack levels used: 1
  2691 ;; This function calls:
  2692 ;;		Nothing
  2693 ;; This function is called by:
  2694 ;;		_map
  2695 ;; This function uses a non-reentrant model
  2696 ;;
  2697                           
  2698  0A97                     ___fltol:	
  2699                           ;psect for function ___fltol
  2700                           
  2701  0A97                     i1l1646:	
  2702                           ;incstack = 0
  2703                           ; Regs used in ___fltol: [wreg+status,2+status,0]
  2704                           
  2705  0A97  1003               	clrc
  2706  0A98  1283               	bcf	3,5	;RP0=0, select bank0
  2707  0A99  1303               	bcf	3,6	;RP1=0, select bank0
  2708  0A9A  0D6A               	rlf	___fltol@f1+2,w
  2709  0A9B  0D6B               	rlf	___fltol@f1+3,w
  2710  0A9C  1683               	bsf	3,5	;RP0=1, select bank1
  2711  0A9D  1303               	bcf	3,6	;RP1=0, select bank1
  2712  0A9E  00B4               	movwf	??___fltol^(0+128)
  2713  0A9F  0834               	movf	??___fltol^(0+128),w
  2714  0AA0  1283               	bcf	3,5	;RP0=0, select bank0
  2715  0AA1  1303               	bcf	3,6	;RP1=0, select bank0
  2716  0AA2  00ED               	movwf	___fltol@exp1
  2717  0AA3  086D               	movf	___fltol@exp1,w
  2718  0AA4  1D03               	btfss	3,2
  2719  0AA5  2AA7               	goto	u162_21
  2720  0AA6  2AA8               	goto	u162_20
  2721  0AA7                     u162_21:
  2722  0AA7  2AB1               	goto	i1l1652
  2723  0AA8                     u162_20:
  2724  0AA8                     i1l1648:
  2725  0AA8  3000               	movlw	0
  2726  0AA9  00EB               	movwf	?___fltol+3
  2727  0AAA  3000               	movlw	0
  2728  0AAB  00EA               	movwf	?___fltol+2
  2729  0AAC  3000               	movlw	0
  2730  0AAD  00E9               	movwf	?___fltol+1
  2731  0AAE  3000               	movlw	0
  2732  0AAF  00E8               	movwf	?___fltol
  2733  0AB0  2B32               	goto	i1l474
  2734  0AB1                     i1l1652:
  2735  0AB1  0868               	movf	___fltol@f1,w
  2736  0AB2  1683               	bsf	3,5	;RP0=1, select bank1
  2737  0AB3  1303               	bcf	3,6	;RP1=0, select bank1
  2738  0AB4  00B4               	movwf	??___fltol^(0+128)
  2739  0AB5  1283               	bcf	3,5	;RP0=0, select bank0
  2740  0AB6  1303               	bcf	3,6	;RP1=0, select bank0
  2741  0AB7  0869               	movf	___fltol@f1+1,w
  2742  0AB8  1683               	bsf	3,5	;RP0=1, select bank1
  2743  0AB9  1303               	bcf	3,6	;RP1=0, select bank1
  2744  0ABA  00B5               	movwf	(??___fltol^(0+128)+1)
  2745  0ABB  1283               	bcf	3,5	;RP0=0, select bank0
  2746  0ABC  1303               	bcf	3,6	;RP1=0, select bank0
  2747  0ABD  086A               	movf	___fltol@f1+2,w
  2748  0ABE  1683               	bsf	3,5	;RP0=1, select bank1
  2749  0ABF  1303               	bcf	3,6	;RP1=0, select bank1
  2750  0AC0  00B6               	movwf	(??___fltol^(0+128)+2)
  2751  0AC1  1283               	bcf	3,5	;RP0=0, select bank0
  2752  0AC2  1303               	bcf	3,6	;RP1=0, select bank0
  2753  0AC3  086B               	movf	___fltol@f1+3,w
  2754  0AC4  1683               	bsf	3,5	;RP0=1, select bank1
  2755  0AC5  1303               	bcf	3,6	;RP1=0, select bank1
  2756  0AC6  00B7               	movwf	(??___fltol^(0+128)+3)
  2757  0AC7  301F               	movlw	31
  2758  0AC8                     u163_25:
  2759  0AC8  1003               	clrc
  2760  0AC9  0CB7               	rrf	(??___fltol^(0+128)+3),f
  2761  0ACA  0CB6               	rrf	(??___fltol^(0+128)+2),f
  2762  0ACB  0CB5               	rrf	(??___fltol^(0+128)+1),f
  2763  0ACC  0CB4               	rrf	??___fltol^(0+128),f
  2764  0ACD                     u163_20:
  2765  0ACD  3EFF               	addlw	-1
  2766  0ACE  1D03               	skipz
  2767  0ACF  2AC8               	goto	u163_25
  2768  0AD0  0834               	movf	??___fltol^(0+128),w
  2769  0AD1  00B8               	movwf	(??___fltol+4)^(0+128)
  2770  0AD2  0838               	movf	(??___fltol+4)^(0+128),w
  2771  0AD3  1283               	bcf	3,5	;RP0=0, select bank0
  2772  0AD4  1303               	bcf	3,6	;RP1=0, select bank0
  2773  0AD5  00EC               	movwf	___fltol@sign1
  2774  0AD6                     i1l1654:
  2775  0AD6  17EA               	bsf	___fltol@f1+2,7
  2776  0AD7                     i1l1656:
  2777  0AD7  30FF               	movlw	255
  2778  0AD8  05E8               	andwf	___fltol@f1,f
  2779  0AD9  30FF               	movlw	255
  2780  0ADA  05E9               	andwf	___fltol@f1+1,f
  2781  0ADB  30FF               	movlw	255
  2782  0ADC  05EA               	andwf	___fltol@f1+2,f
  2783  0ADD  3000               	movlw	0
  2784  0ADE  05EB               	andwf	___fltol@f1+3,f
  2785  0ADF                     i1l1658:
  2786  0ADF  3096               	movlw	150
  2787  0AE0  02ED               	subwf	___fltol@exp1,f
  2788  0AE1                     i1l1660:
  2789  0AE1  1FED               	btfss	___fltol@exp1,7
  2790  0AE2  2AE4               	goto	u164_21
  2791  0AE3  2AE5               	goto	u164_20
  2792  0AE4                     u164_21:
  2793  0AE4  2B03               	goto	i1l1670
  2794  0AE5                     u164_20:
  2795  0AE5                     i1l1662:
  2796  0AE5  086D               	movf	___fltol@exp1,w
  2797  0AE6  3A80               	xorlw	128
  2798  0AE7  3E97               	addlw	151
  2799  0AE8  1803               	skipnc
  2800  0AE9  2AEB               	goto	u165_21
  2801  0AEA  2AEC               	goto	u165_20
  2802  0AEB                     u165_21:
  2803  0AEB  2AED               	goto	i1l1668
  2804  0AEC                     u165_20:
  2805  0AEC  2AA8               	goto	i1l1648
  2806  0AED                     i1l1668:
  2807  0AED  3001               	movlw	1
  2808  0AEE                     u166_25:
  2809  0AEE  1003               	clrc
  2810  0AEF  0CEB               	rrf	___fltol@f1+3,f
  2811  0AF0  0CEA               	rrf	___fltol@f1+2,f
  2812  0AF1  0CE9               	rrf	___fltol@f1+1,f
  2813  0AF2  0CE8               	rrf	___fltol@f1,f
  2814  0AF3  3EFF               	addlw	-1
  2815  0AF4  1D03               	skipz
  2816  0AF5  2AEE               	goto	u166_25
  2817  0AF6  3001               	movlw	1
  2818  0AF7  1683               	bsf	3,5	;RP0=1, select bank1
  2819  0AF8  1303               	bcf	3,6	;RP1=0, select bank1
  2820  0AF9  00B4               	movwf	??___fltol^(0+128)
  2821  0AFA  0834               	movf	??___fltol^(0+128),w
  2822  0AFB  1283               	bcf	3,5	;RP0=0, select bank0
  2823  0AFC  1303               	bcf	3,6	;RP1=0, select bank0
  2824  0AFD  07ED               	addwf	___fltol@exp1,f
  2825  0AFE  1D03               	btfss	3,2
  2826  0AFF  2B01               	goto	u167_21
  2827  0B00  2B02               	goto	u167_20
  2828  0B01                     u167_21:
  2829  0B01  2AED               	goto	i1l1668
  2830  0B02                     u167_20:
  2831  0B02  2B22               	goto	i1l1678
  2832  0B03                     i1l1670:
  2833  0B03  3020               	movlw	32
  2834  0B04  026D               	subwf	___fltol@exp1,w
  2835  0B05  1C03               	skipc
  2836  0B06  2B08               	goto	u168_21
  2837  0B07  2B09               	goto	u168_20
  2838  0B08                     u168_21:
  2839  0B08  2B1D               	goto	i1l481
  2840  0B09                     u168_20:
  2841  0B09  2AA8               	goto	i1l1648
  2842  0B0A                     i1l1676:
  2843  0B0A  3001               	movlw	1
  2844  0B0B  1683               	bsf	3,5	;RP0=1, select bank1
  2845  0B0C  1303               	bcf	3,6	;RP1=0, select bank1
  2846  0B0D  00B4               	movwf	??___fltol^(0+128)
  2847  0B0E                     u169_25:
  2848  0B0E  1003               	clrc
  2849  0B0F  1283               	bcf	3,5	;RP0=0, select bank0
  2850  0B10  1303               	bcf	3,6	;RP1=0, select bank0
  2851  0B11  0DE8               	rlf	___fltol@f1,f
  2852  0B12  0DE9               	rlf	___fltol@f1+1,f
  2853  0B13  0DEA               	rlf	___fltol@f1+2,f
  2854  0B14  0DEB               	rlf	___fltol@f1+3,f
  2855  0B15  1683               	bsf	3,5	;RP0=1, select bank1
  2856  0B16  1303               	bcf	3,6	;RP1=0, select bank1
  2857  0B17  0BB4               	decfsz	??___fltol^(0+128),f
  2858  0B18  2B0E               	goto	u169_25
  2859  0B19  3001               	movlw	1
  2860  0B1A  1283               	bcf	3,5	;RP0=0, select bank0
  2861  0B1B  1303               	bcf	3,6	;RP1=0, select bank0
  2862  0B1C  02ED               	subwf	___fltol@exp1,f
  2863  0B1D                     i1l481:
  2864  0B1D  086D               	movf	___fltol@exp1,w
  2865  0B1E  1D03               	btfss	3,2
  2866  0B1F  2B21               	goto	u170_21
  2867  0B20  2B22               	goto	u170_20
  2868  0B21                     u170_21:
  2869  0B21  2B0A               	goto	i1l1676
  2870  0B22                     u170_20:
  2871  0B22                     i1l1678:
  2872  0B22  086C               	movf	___fltol@sign1,w
  2873  0B23  1903               	btfsc	3,2
  2874  0B24  2B26               	goto	u171_21
  2875  0B25  2B27               	goto	u171_20
  2876  0B26                     u171_21:
  2877  0B26  2B32               	goto	i1l484
  2878  0B27                     u171_20:
  2879  0B27                     i1l1680:
  2880  0B27  09E8               	comf	___fltol@f1,f
  2881  0B28  09E9               	comf	___fltol@f1+1,f
  2882  0B29  09EA               	comf	___fltol@f1+2,f
  2883  0B2A  09EB               	comf	___fltol@f1+3,f
  2884  0B2B  0AE8               	incf	___fltol@f1,f
  2885  0B2C  1903               	skipnz
  2886  0B2D  0AE9               	incf	___fltol@f1+1,f
  2887  0B2E  1903               	skipnz
  2888  0B2F  0AEA               	incf	___fltol@f1+2,f
  2889  0B30  1903               	skipnz
  2890  0B31  0AEB               	incf	___fltol@f1+3,f
  2891  0B32                     i1l484:
  2892  0B32                     i1l474:
  2893  0B32  0008               	return
  2894  0B33                     __end_of___fltol:
  2895                           
  2896                           	psect	text8
  2897  002B                     __ptext8:	
  2898 ;; *************** function ___flmul *****************
  2899 ;; Defined at:
  2900 ;;		line 8 in file "C:\Program Files\Microchip\xc8\v2.35\pic\sources\c90\common\sprcmul.c"
  2901 ;; Parameters:    Size  Location     Type
  2902 ;;  b               4   26[BANK0 ] long 
  2903 ;;  a               4   30[BANK0 ] long 
  2904 ;; Auto vars:     Size  Location     Type
  2905 ;;  prod            4   46[BANK0 ] struct .
  2906 ;;  grs             4   40[BANK0 ] unsigned long 
  2907 ;;  temp            2   50[BANK0 ] struct .
  2908 ;;  bexp            1   45[BANK0 ] unsigned char 
  2909 ;;  aexp            1   44[BANK0 ] unsigned char 
  2910 ;;  sign            1   39[BANK0 ] unsigned char 
  2911 ;; Return value:  Size  Location     Type
  2912 ;;                  4   26[BANK0 ] unsigned char 
  2913 ;; Registers used:
  2914 ;;		wreg, status,2, status,0, btemp+1, pclath, cstack
  2915 ;; Tracked objects:
  2916 ;;		On entry : 0/0
  2917 ;;		On exit  : 0/0
  2918 ;;		Unchanged: 0/0
  2919 ;; Data sizes:     COMMON   BANK0   BANK1   BANK3   BANK2
  2920 ;;      Params:         0       8       0       0       0
  2921 ;;      Locals:         0      13       0       0       0
  2922 ;;      Temps:          0       5       0       0       0
  2923 ;;      Totals:         0      26       0       0       0
  2924 ;;Total ram usage:       26 bytes
  2925 ;; Hardware stack levels used: 1
  2926 ;; Hardware stack levels required when called: 1
  2927 ;; This function calls:
  2928 ;;		__Umul8_16
  2929 ;; This function is called by:
  2930 ;;		_map
  2931 ;; This function uses a non-reentrant model
  2932 ;;
  2933                           
  2934  002B                     ___flmul:	
  2935                           ;psect for function ___flmul
  2936                           
  2937  002B                     i1l2018:	
  2938                           ;incstack = 0
  2939                           ; Regs used in ___flmul: [wreg+status,2+status,0+btemp+1+pclath+cstack]
  2940                           
  2941  002B  1283               	bcf	3,5	;RP0=0, select bank0
  2942  002C  1303               	bcf	3,6	;RP1=0, select bank0
  2943  002D  083D               	movf	___flmul@b+3,w
  2944  002E  3980               	andlw	128
  2945  002F  00C2               	movwf	??___flmul
  2946  0030  0842               	movf	??___flmul,w
  2947  0031  00C7               	movwf	___flmul@sign
  2948  0032                     i1l2020:
  2949  0032  083D               	movf	___flmul@b+3,w
  2950  0033  00C2               	movwf	??___flmul
  2951  0034  0742               	addwf	??___flmul,w
  2952  0035  00C3               	movwf	??___flmul+1
  2953  0036  0843               	movf	??___flmul+1,w
  2954  0037  00CD               	movwf	___flmul@bexp
  2955  0038                     i1l2022:
  2956  0038  1FBC               	btfss	___flmul@b+2,7
  2957  0039  283B               	goto	u247_21
  2958  003A  283C               	goto	u247_20
  2959  003B                     u247_21:
  2960  003B  283D               	goto	i1l2026
  2961  003C                     u247_20:
  2962  003C                     i1l2024:
  2963  003C  144D               	bsf	___flmul@bexp,0
  2964  003D                     i1l2026:
  2965  003D  084D               	movf	___flmul@bexp,w
  2966  003E  1903               	btfsc	3,2
  2967  003F  2841               	goto	u248_21
  2968  0040  2842               	goto	u248_20
  2969  0041                     u248_21:
  2970  0041  2851               	goto	i1l2034
  2971  0042                     u248_20:
  2972  0042                     i1l2028:
  2973  0042  0A4D               	incf	___flmul@bexp,w
  2974  0043  1D03               	btfss	3,2
  2975  0044  2846               	goto	u249_21
  2976  0045  2847               	goto	u249_20
  2977  0046                     u249_21:
  2978  0046  284F               	goto	i1l2032
  2979  0047                     u249_20:
  2980  0047                     i1l2030:
  2981  0047  3000               	movlw	0
  2982  0048  00BD               	movwf	___flmul@b+3
  2983  0049  3000               	movlw	0
  2984  004A  00BC               	movwf	___flmul@b+2
  2985  004B  3000               	movlw	0
  2986  004C  00BB               	movwf	___flmul@b+1
  2987  004D  3000               	movlw	0
  2988  004E  00BA               	movwf	___flmul@b
  2989  004F                     i1l2032:
  2990  004F  17BC               	bsf	___flmul@b+2,7
  2991  0050  2859               	goto	i1l2036
  2992  0051                     i1l2034:
  2993  0051  3000               	movlw	0
  2994  0052  00BD               	movwf	___flmul@b+3
  2995  0053  3000               	movlw	0
  2996  0054  00BC               	movwf	___flmul@b+2
  2997  0055  3000               	movlw	0
  2998  0056  00BB               	movwf	___flmul@b+1
  2999  0057  3000               	movlw	0
  3000  0058  00BA               	movwf	___flmul@b
  3001  0059                     i1l2036:
  3002  0059  0841               	movf	___flmul@a+3,w
  3003  005A  3980               	andlw	128
  3004  005B  00C2               	movwf	??___flmul
  3005  005C  0842               	movf	??___flmul,w
  3006  005D  06C7               	xorwf	___flmul@sign,f
  3007  005E                     i1l2038:
  3008  005E  0841               	movf	___flmul@a+3,w
  3009  005F  00C2               	movwf	??___flmul
  3010  0060  0742               	addwf	??___flmul,w
  3011  0061  00C3               	movwf	??___flmul+1
  3012  0062  0843               	movf	??___flmul+1,w
  3013  0063  00CC               	movwf	___flmul@aexp
  3014  0064                     i1l2040:
  3015  0064  1FC0               	btfss	___flmul@a+2,7
  3016  0065  2867               	goto	u250_21
  3017  0066  2868               	goto	u250_20
  3018  0067                     u250_21:
  3019  0067  2869               	goto	i1l2044
  3020  0068                     u250_20:
  3021  0068                     i1l2042:
  3022  0068  144C               	bsf	___flmul@aexp,0
  3023  0069                     i1l2044:
  3024  0069  084C               	movf	___flmul@aexp,w
  3025  006A  1903               	btfsc	3,2
  3026  006B  286D               	goto	u251_21
  3027  006C  286E               	goto	u251_20
  3028  006D                     u251_21:
  3029  006D  287D               	goto	i1l2052
  3030  006E                     u251_20:
  3031  006E                     i1l2046:
  3032  006E  0A4C               	incf	___flmul@aexp,w
  3033  006F  1D03               	btfss	3,2
  3034  0070  2872               	goto	u252_21
  3035  0071  2873               	goto	u252_20
  3036  0072                     u252_21:
  3037  0072  287B               	goto	i1l2050
  3038  0073                     u252_20:
  3039  0073                     i1l2048:
  3040  0073  3000               	movlw	0
  3041  0074  00C1               	movwf	___flmul@a+3
  3042  0075  3000               	movlw	0
  3043  0076  00C0               	movwf	___flmul@a+2
  3044  0077  3000               	movlw	0
  3045  0078  00BF               	movwf	___flmul@a+1
  3046  0079  3000               	movlw	0
  3047  007A  00BE               	movwf	___flmul@a
  3048  007B                     i1l2050:
  3049  007B  17C0               	bsf	___flmul@a+2,7
  3050  007C  2885               	goto	i1l2054
  3051  007D                     i1l2052:
  3052  007D  3000               	movlw	0
  3053  007E  00C1               	movwf	___flmul@a+3
  3054  007F  3000               	movlw	0
  3055  0080  00C0               	movwf	___flmul@a+2
  3056  0081  3000               	movlw	0
  3057  0082  00BF               	movwf	___flmul@a+1
  3058  0083  3000               	movlw	0
  3059  0084  00BE               	movwf	___flmul@a
  3060  0085                     i1l2054:
  3061  0085  084C               	movf	___flmul@aexp,w
  3062  0086  1903               	btfsc	3,2
  3063  0087  2889               	goto	u253_21
  3064  0088  288A               	goto	u253_20
  3065  0089                     u253_21:
  3066  0089  288F               	goto	i1l2058
  3067  008A                     u253_20:
  3068  008A                     i1l2056:
  3069  008A  084D               	movf	___flmul@bexp,w
  3070  008B  1D03               	btfss	3,2
  3071  008C  288E               	goto	u254_21
  3072  008D  288F               	goto	u254_20
  3073  008E                     u254_21:
  3074  008E  2898               	goto	i1l2062
  3075  008F                     u254_20:
  3076  008F                     i1l2058:
  3077  008F  3000               	movlw	0
  3078  0090  00BD               	movwf	?___flmul+3
  3079  0091  3000               	movlw	0
  3080  0092  00BC               	movwf	?___flmul+2
  3081  0093  3000               	movlw	0
  3082  0094  00BB               	movwf	?___flmul+1
  3083  0095  3000               	movlw	0
  3084  0096  00BA               	movwf	?___flmul
  3085  0097  2B8B               	goto	i1l677
  3086  0098                     i1l2062:
  3087  0098  083A               	movf	___flmul@b,w
  3088  0099  00C2               	movwf	??___flmul
  3089  009A  0842               	movf	??___flmul,w
  3090  009B  00F0               	movwf	__Umul8_16@multiplicand
  3091  009C  0840               	movf	___flmul@a+2,w
  3092  009D  120A  158A  2270  120A  118A  	fcall	__Umul8_16
  3093  00A2  0871               	movf	?__Umul8_16+1,w
  3094  00A3  1283               	bcf	3,5	;RP0=0, select bank0
  3095  00A4  1303               	bcf	3,6	;RP1=0, select bank0
  3096  00A5  00D3               	movwf	___flmul@temp+1
  3097  00A6  0870               	movf	?__Umul8_16,w
  3098  00A7  00D2               	movwf	___flmul@temp
  3099  00A8                     i1l2064:
  3100  00A8  0852               	movf	___flmul@temp,w
  3101  00A9  00C2               	movwf	??___flmul
  3102  00AA  01C3               	clrf	??___flmul+1
  3103  00AB  01C4               	clrf	??___flmul+2
  3104  00AC  01C5               	clrf	??___flmul+3
  3105  00AD  0845               	movf	??___flmul+3,w
  3106  00AE  00CB               	movwf	___flmul@grs+3
  3107  00AF  0844               	movf	??___flmul+2,w
  3108  00B0  00CA               	movwf	___flmul@grs+2
  3109  00B1  0843               	movf	??___flmul+1,w
  3110  00B2  00C9               	movwf	___flmul@grs+1
  3111  00B3  0842               	movf	??___flmul,w
  3112  00B4  00C8               	movwf	___flmul@grs
  3113  00B5                     i1l2066:
  3114  00B5  0853               	movf	___flmul@temp+1,w
  3115  00B6  00C2               	movwf	??___flmul
  3116  00B7  01C3               	clrf	??___flmul+1
  3117  00B8  01C4               	clrf	??___flmul+2
  3118  00B9  01C5               	clrf	??___flmul+3
  3119  00BA  0845               	movf	??___flmul+3,w
  3120  00BB  00D1               	movwf	___flmul@prod+3
  3121  00BC  0844               	movf	??___flmul+2,w
  3122  00BD  00D0               	movwf	___flmul@prod+2
  3123  00BE  0843               	movf	??___flmul+1,w
  3124  00BF  00CF               	movwf	___flmul@prod+1
  3125  00C0  0842               	movf	??___flmul,w
  3126  00C1  00CE               	movwf	___flmul@prod
  3127  00C2  083B               	movf	___flmul@b+1,w
  3128  00C3  00C2               	movwf	??___flmul
  3129  00C4  0842               	movf	??___flmul,w
  3130  00C5  00F0               	movwf	__Umul8_16@multiplicand
  3131  00C6  083F               	movf	___flmul@a+1,w
  3132  00C7  120A  158A  2270  120A  118A  	fcall	__Umul8_16
  3133  00CC  0871               	movf	?__Umul8_16+1,w
  3134  00CD  1283               	bcf	3,5	;RP0=0, select bank0
  3135  00CE  1303               	bcf	3,6	;RP1=0, select bank0
  3136  00CF  00D3               	movwf	___flmul@temp+1
  3137  00D0  0870               	movf	?__Umul8_16,w
  3138  00D1  00D2               	movwf	___flmul@temp
  3139  00D2                     i1l2068:
  3140  00D2  0852               	movf	___flmul@temp,w
  3141  00D3  00C2               	movwf	??___flmul
  3142  00D4  01C3               	clrf	??___flmul+1
  3143  00D5  01C4               	clrf	??___flmul+2
  3144  00D6  01C5               	clrf	??___flmul+3
  3145  00D7  0842               	movf	??___flmul,w
  3146  00D8  07C8               	addwf	___flmul@grs,f
  3147  00D9  0843               	movf	??___flmul+1,w
  3148  00DA  1103               	clrz
  3149  00DB  1803               	skipnc
  3150  00DC  3E01               	addlw	1
  3151  00DD  1903               	skipnz
  3152  00DE  28E0               	goto	u255_21
  3153  00DF  07C9               	addwf	___flmul@grs+1,f
  3154  00E0                     u255_21:
  3155  00E0  0844               	movf	??___flmul+2,w
  3156  00E1  1103               	clrz
  3157  00E2  1803               	skipnc
  3158  00E3  3E01               	addlw	1
  3159  00E4  1903               	skipnz
  3160  00E5  28E7               	goto	u255_22
  3161  00E6  07CA               	addwf	___flmul@grs+2,f
  3162  00E7                     u255_22:
  3163  00E7  0845               	movf	??___flmul+3,w
  3164  00E8  1103               	clrz
  3165  00E9  1803               	skipnc
  3166  00EA  3E01               	addlw	1
  3167  00EB  1903               	skipnz
  3168  00EC  28EE               	goto	u255_23
  3169  00ED  07CB               	addwf	___flmul@grs+3,f
  3170  00EE                     u255_23:
  3171  00EE                     i1l2070:
  3172  00EE  0853               	movf	___flmul@temp+1,w
  3173  00EF  00C2               	movwf	??___flmul
  3174  00F0  01C3               	clrf	??___flmul+1
  3175  00F1  01C4               	clrf	??___flmul+2
  3176  00F2  01C5               	clrf	??___flmul+3
  3177  00F3  0842               	movf	??___flmul,w
  3178  00F4  07CE               	addwf	___flmul@prod,f
  3179  00F5  0843               	movf	??___flmul+1,w
  3180  00F6  1103               	clrz
  3181  00F7  1803               	skipnc
  3182  00F8  3E01               	addlw	1
  3183  00F9  1903               	skipnz
  3184  00FA  28FC               	goto	u256_21
  3185  00FB  07CF               	addwf	___flmul@prod+1,f
  3186  00FC                     u256_21:
  3187  00FC  0844               	movf	??___flmul+2,w
  3188  00FD  1103               	clrz
  3189  00FE  1803               	skipnc
  3190  00FF  3E01               	addlw	1
  3191  0100  1903               	skipnz
  3192  0101  2903               	goto	u256_22
  3193  0102  07D0               	addwf	___flmul@prod+2,f
  3194  0103                     u256_22:
  3195  0103  0845               	movf	??___flmul+3,w
  3196  0104  1103               	clrz
  3197  0105  1803               	skipnc
  3198  0106  3E01               	addlw	1
  3199  0107  1903               	skipnz
  3200  0108  290A               	goto	u256_23
  3201  0109  07D1               	addwf	___flmul@prod+3,f
  3202  010A                     u256_23:
  3203  010A  083C               	movf	___flmul@b+2,w
  3204  010B  00C2               	movwf	??___flmul
  3205  010C  0842               	movf	??___flmul,w
  3206  010D  00F0               	movwf	__Umul8_16@multiplicand
  3207  010E  083E               	movf	___flmul@a,w
  3208  010F  120A  158A  2270  120A  118A  	fcall	__Umul8_16
  3209  0114  0871               	movf	?__Umul8_16+1,w
  3210  0115  1283               	bcf	3,5	;RP0=0, select bank0
  3211  0116  1303               	bcf	3,6	;RP1=0, select bank0
  3212  0117  00D3               	movwf	___flmul@temp+1
  3213  0118  0870               	movf	?__Umul8_16,w
  3214  0119  00D2               	movwf	___flmul@temp
  3215  011A                     i1l2072:
  3216  011A  0852               	movf	___flmul@temp,w
  3217  011B  00C2               	movwf	??___flmul
  3218  011C  01C3               	clrf	??___flmul+1
  3219  011D  01C4               	clrf	??___flmul+2
  3220  011E  01C5               	clrf	??___flmul+3
  3221  011F  0842               	movf	??___flmul,w
  3222  0120  07C8               	addwf	___flmul@grs,f
  3223  0121  0843               	movf	??___flmul+1,w
  3224  0122  1103               	clrz
  3225  0123  1803               	skipnc
  3226  0124  3E01               	addlw	1
  3227  0125  1903               	skipnz
  3228  0126  2928               	goto	u257_21
  3229  0127  07C9               	addwf	___flmul@grs+1,f
  3230  0128                     u257_21:
  3231  0128  0844               	movf	??___flmul+2,w
  3232  0129  1103               	clrz
  3233  012A  1803               	skipnc
  3234  012B  3E01               	addlw	1
  3235  012C  1903               	skipnz
  3236  012D  292F               	goto	u257_22
  3237  012E  07CA               	addwf	___flmul@grs+2,f
  3238  012F                     u257_22:
  3239  012F  0845               	movf	??___flmul+3,w
  3240  0130  1103               	clrz
  3241  0131  1803               	skipnc
  3242  0132  3E01               	addlw	1
  3243  0133  1903               	skipnz
  3244  0134  2936               	goto	u257_23
  3245  0135  07CB               	addwf	___flmul@grs+3,f
  3246  0136                     u257_23:
  3247  0136                     i1l2074:
  3248  0136  0853               	movf	___flmul@temp+1,w
  3249  0137  00C2               	movwf	??___flmul
  3250  0138  01C3               	clrf	??___flmul+1
  3251  0139  01C4               	clrf	??___flmul+2
  3252  013A  01C5               	clrf	??___flmul+3
  3253  013B  0842               	movf	??___flmul,w
  3254  013C  07CE               	addwf	___flmul@prod,f
  3255  013D  0843               	movf	??___flmul+1,w
  3256  013E  1103               	clrz
  3257  013F  1803               	skipnc
  3258  0140  3E01               	addlw	1
  3259  0141  1903               	skipnz
  3260  0142  2944               	goto	u258_21
  3261  0143  07CF               	addwf	___flmul@prod+1,f
  3262  0144                     u258_21:
  3263  0144  0844               	movf	??___flmul+2,w
  3264  0145  1103               	clrz
  3265  0146  1803               	skipnc
  3266  0147  3E01               	addlw	1
  3267  0148  1903               	skipnz
  3268  0149  294B               	goto	u258_22
  3269  014A  07D0               	addwf	___flmul@prod+2,f
  3270  014B                     u258_22:
  3271  014B  0845               	movf	??___flmul+3,w
  3272  014C  1103               	clrz
  3273  014D  1803               	skipnc
  3274  014E  3E01               	addlw	1
  3275  014F  1903               	skipnz
  3276  0150  2952               	goto	u258_23
  3277  0151  07D1               	addwf	___flmul@prod+3,f
  3278  0152                     u258_23:
  3279  0152                     i1l2076:
  3280  0152  3008               	movlw	8
  3281  0153  00C2               	movwf	??___flmul
  3282  0154                     u259_25:
  3283  0154  1003               	clrc
  3284  0155  0DC8               	rlf	___flmul@grs,f
  3285  0156  0DC9               	rlf	___flmul@grs+1,f
  3286  0157  0DCA               	rlf	___flmul@grs+2,f
  3287  0158  0DCB               	rlf	___flmul@grs+3,f
  3288  0159  0BC2               	decfsz	??___flmul,f
  3289  015A  2954               	goto	u259_25
  3290  015B                     i1l2078:
  3291  015B  083B               	movf	___flmul@b+1,w
  3292  015C  00C2               	movwf	??___flmul
  3293  015D  0842               	movf	??___flmul,w
  3294  015E  00F0               	movwf	__Umul8_16@multiplicand
  3295  015F  083E               	movf	___flmul@a,w
  3296  0160  120A  158A  2270  120A  118A  	fcall	__Umul8_16
  3297  0165  0871               	movf	?__Umul8_16+1,w
  3298  0166  1283               	bcf	3,5	;RP0=0, select bank0
  3299  0167  1303               	bcf	3,6	;RP1=0, select bank0
  3300  0168  00D3               	movwf	___flmul@temp+1
  3301  0169  0870               	movf	?__Umul8_16,w
  3302  016A  00D2               	movwf	___flmul@temp
  3303  016B                     i1l2080:
  3304  016B  0852               	movf	___flmul@temp,w
  3305  016C  00C2               	movwf	??___flmul
  3306  016D  0853               	movf	___flmul@temp+1,w
  3307  016E  00C3               	movwf	??___flmul+1
  3308  016F  01C4               	clrf	??___flmul+2
  3309  0170  01C5               	clrf	??___flmul+3
  3310  0171  0842               	movf	??___flmul,w
  3311  0172  07C8               	addwf	___flmul@grs,f
  3312  0173  0843               	movf	??___flmul+1,w
  3313  0174  1103               	clrz
  3314  0175  1803               	skipnc
  3315  0176  3E01               	addlw	1
  3316  0177  1903               	skipnz
  3317  0178  297A               	goto	u260_21
  3318  0179  07C9               	addwf	___flmul@grs+1,f
  3319  017A                     u260_21:
  3320  017A  0844               	movf	??___flmul+2,w
  3321  017B  1103               	clrz
  3322  017C  1803               	skipnc
  3323  017D  3E01               	addlw	1
  3324  017E  1903               	skipnz
  3325  017F  2981               	goto	u260_22
  3326  0180  07CA               	addwf	___flmul@grs+2,f
  3327  0181                     u260_22:
  3328  0181  0845               	movf	??___flmul+3,w
  3329  0182  1103               	clrz
  3330  0183  1803               	skipnc
  3331  0184  3E01               	addlw	1
  3332  0185  1903               	skipnz
  3333  0186  2988               	goto	u260_23
  3334  0187  07CB               	addwf	___flmul@grs+3,f
  3335  0188                     u260_23:
  3336  0188                     i1l2082:
  3337  0188  083A               	movf	___flmul@b,w
  3338  0189  00C2               	movwf	??___flmul
  3339  018A  0842               	movf	??___flmul,w
  3340  018B  00F0               	movwf	__Umul8_16@multiplicand
  3341  018C  083F               	movf	___flmul@a+1,w
  3342  018D  120A  158A  2270  120A  118A  	fcall	__Umul8_16
  3343  0192  0871               	movf	?__Umul8_16+1,w
  3344  0193  1283               	bcf	3,5	;RP0=0, select bank0
  3345  0194  1303               	bcf	3,6	;RP1=0, select bank0
  3346  0195  00D3               	movwf	___flmul@temp+1
  3347  0196  0870               	movf	?__Umul8_16,w
  3348  0197  00D2               	movwf	___flmul@temp
  3349  0198                     i1l2084:
  3350  0198  0852               	movf	___flmul@temp,w
  3351  0199  00C2               	movwf	??___flmul
  3352  019A  0853               	movf	___flmul@temp+1,w
  3353  019B  00C3               	movwf	??___flmul+1
  3354  019C  01C4               	clrf	??___flmul+2
  3355  019D  01C5               	clrf	??___flmul+3
  3356  019E  0842               	movf	??___flmul,w
  3357  019F  07C8               	addwf	___flmul@grs,f
  3358  01A0  0843               	movf	??___flmul+1,w
  3359  01A1  1103               	clrz
  3360  01A2  1803               	skipnc
  3361  01A3  3E01               	addlw	1
  3362  01A4  1903               	skipnz
  3363  01A5  29A7               	goto	u261_21
  3364  01A6  07C9               	addwf	___flmul@grs+1,f
  3365  01A7                     u261_21:
  3366  01A7  0844               	movf	??___flmul+2,w
  3367  01A8  1103               	clrz
  3368  01A9  1803               	skipnc
  3369  01AA  3E01               	addlw	1
  3370  01AB  1903               	skipnz
  3371  01AC  29AE               	goto	u261_22
  3372  01AD  07CA               	addwf	___flmul@grs+2,f
  3373  01AE                     u261_22:
  3374  01AE  0845               	movf	??___flmul+3,w
  3375  01AF  1103               	clrz
  3376  01B0  1803               	skipnc
  3377  01B1  3E01               	addlw	1
  3378  01B2  1903               	skipnz
  3379  01B3  29B5               	goto	u261_23
  3380  01B4  07CB               	addwf	___flmul@grs+3,f
  3381  01B5                     u261_23:
  3382  01B5                     i1l2086:
  3383  01B5  3008               	movlw	8
  3384  01B6  00C2               	movwf	??___flmul
  3385  01B7                     u262_25:
  3386  01B7  1003               	clrc
  3387  01B8  0DC8               	rlf	___flmul@grs,f
  3388  01B9  0DC9               	rlf	___flmul@grs+1,f
  3389  01BA  0DCA               	rlf	___flmul@grs+2,f
  3390  01BB  0DCB               	rlf	___flmul@grs+3,f
  3391  01BC  0BC2               	decfsz	??___flmul,f
  3392  01BD  29B7               	goto	u262_25
  3393  01BE  083A               	movf	___flmul@b,w
  3394  01BF  00C2               	movwf	??___flmul
  3395  01C0  0842               	movf	??___flmul,w
  3396  01C1  00F0               	movwf	__Umul8_16@multiplicand
  3397  01C2  083E               	movf	___flmul@a,w
  3398  01C3  120A  158A  2270  120A  118A  	fcall	__Umul8_16
  3399  01C8  0871               	movf	?__Umul8_16+1,w
  3400  01C9  1283               	bcf	3,5	;RP0=0, select bank0
  3401  01CA  1303               	bcf	3,6	;RP1=0, select bank0
  3402  01CB  00D3               	movwf	___flmul@temp+1
  3403  01CC  0870               	movf	?__Umul8_16,w
  3404  01CD  00D2               	movwf	___flmul@temp
  3405  01CE                     i1l2088:
  3406  01CE  0852               	movf	___flmul@temp,w
  3407  01CF  00C2               	movwf	??___flmul
  3408  01D0  0853               	movf	___flmul@temp+1,w
  3409  01D1  00C3               	movwf	??___flmul+1
  3410  01D2  01C4               	clrf	??___flmul+2
  3411  01D3  01C5               	clrf	??___flmul+3
  3412  01D4  0842               	movf	??___flmul,w
  3413  01D5  07C8               	addwf	___flmul@grs,f
  3414  01D6  0843               	movf	??___flmul+1,w
  3415  01D7  1103               	clrz
  3416  01D8  1803               	skipnc
  3417  01D9  3E01               	addlw	1
  3418  01DA  1903               	skipnz
  3419  01DB  29DD               	goto	u263_21
  3420  01DC  07C9               	addwf	___flmul@grs+1,f
  3421  01DD                     u263_21:
  3422  01DD  0844               	movf	??___flmul+2,w
  3423  01DE  1103               	clrz
  3424  01DF  1803               	skipnc
  3425  01E0  3E01               	addlw	1
  3426  01E1  1903               	skipnz
  3427  01E2  29E4               	goto	u263_22
  3428  01E3  07CA               	addwf	___flmul@grs+2,f
  3429  01E4                     u263_22:
  3430  01E4  0845               	movf	??___flmul+3,w
  3431  01E5  1103               	clrz
  3432  01E6  1803               	skipnc
  3433  01E7  3E01               	addlw	1
  3434  01E8  1903               	skipnz
  3435  01E9  29EB               	goto	u263_23
  3436  01EA  07CB               	addwf	___flmul@grs+3,f
  3437  01EB                     u263_23:
  3438  01EB                     i1l2090:
  3439  01EB  083B               	movf	___flmul@b+1,w
  3440  01EC  00C2               	movwf	??___flmul
  3441  01ED  0842               	movf	??___flmul,w
  3442  01EE  00F0               	movwf	__Umul8_16@multiplicand
  3443  01EF  0840               	movf	___flmul@a+2,w
  3444  01F0  120A  158A  2270  120A  118A  	fcall	__Umul8_16
  3445  01F5  0871               	movf	?__Umul8_16+1,w
  3446  01F6  1283               	bcf	3,5	;RP0=0, select bank0
  3447  01F7  1303               	bcf	3,6	;RP1=0, select bank0
  3448  01F8  00D3               	movwf	___flmul@temp+1
  3449  01F9  0870               	movf	?__Umul8_16,w
  3450  01FA  00D2               	movwf	___flmul@temp
  3451  01FB  0852               	movf	___flmul@temp,w
  3452  01FC  00C2               	movwf	??___flmul
  3453  01FD  0853               	movf	___flmul@temp+1,w
  3454  01FE  00C3               	movwf	??___flmul+1
  3455  01FF  01C4               	clrf	??___flmul+2
  3456  0200  01C5               	clrf	??___flmul+3
  3457  0201  0842               	movf	??___flmul,w
  3458  0202  07CE               	addwf	___flmul@prod,f
  3459  0203  0843               	movf	??___flmul+1,w
  3460  0204  1103               	clrz
  3461  0205  1803               	skipnc
  3462  0206  3E01               	addlw	1
  3463  0207  1903               	skipnz
  3464  0208  2A0A               	goto	u264_21
  3465  0209  07CF               	addwf	___flmul@prod+1,f
  3466  020A                     u264_21:
  3467  020A  0844               	movf	??___flmul+2,w
  3468  020B  1103               	clrz
  3469  020C  1803               	skipnc
  3470  020D  3E01               	addlw	1
  3471  020E  1903               	skipnz
  3472  020F  2A11               	goto	u264_22
  3473  0210  07D0               	addwf	___flmul@prod+2,f
  3474  0211                     u264_22:
  3475  0211  0845               	movf	??___flmul+3,w
  3476  0212  1103               	clrz
  3477  0213  1803               	skipnc
  3478  0214  3E01               	addlw	1
  3479  0215  1903               	skipnz
  3480  0216  2A18               	goto	u264_23
  3481  0217  07D1               	addwf	___flmul@prod+3,f
  3482  0218                     u264_23:
  3483  0218                     i1l2092:
  3484  0218  083C               	movf	___flmul@b+2,w
  3485  0219  00C2               	movwf	??___flmul
  3486  021A  0842               	movf	??___flmul,w
  3487  021B  00F0               	movwf	__Umul8_16@multiplicand
  3488  021C  083F               	movf	___flmul@a+1,w
  3489  021D  120A  158A  2270  120A  118A  	fcall	__Umul8_16
  3490  0222  0871               	movf	?__Umul8_16+1,w
  3491  0223  1283               	bcf	3,5	;RP0=0, select bank0
  3492  0224  1303               	bcf	3,6	;RP1=0, select bank0
  3493  0225  00D3               	movwf	___flmul@temp+1
  3494  0226  0870               	movf	?__Umul8_16,w
  3495  0227  00D2               	movwf	___flmul@temp
  3496  0228                     i1l2094:
  3497  0228  0852               	movf	___flmul@temp,w
  3498  0229  00C2               	movwf	??___flmul
  3499  022A  0853               	movf	___flmul@temp+1,w
  3500  022B  00C3               	movwf	??___flmul+1
  3501  022C  01C4               	clrf	??___flmul+2
  3502  022D  01C5               	clrf	??___flmul+3
  3503  022E  0842               	movf	??___flmul,w
  3504  022F  07CE               	addwf	___flmul@prod,f
  3505  0230  0843               	movf	??___flmul+1,w
  3506  0231  1103               	clrz
  3507  0232  1803               	skipnc
  3508  0233  3E01               	addlw	1
  3509  0234  1903               	skipnz
  3510  0235  2A37               	goto	u265_21
  3511  0236  07CF               	addwf	___flmul@prod+1,f
  3512  0237                     u265_21:
  3513  0237  0844               	movf	??___flmul+2,w
  3514  0238  1103               	clrz
  3515  0239  1803               	skipnc
  3516  023A  3E01               	addlw	1
  3517  023B  1903               	skipnz
  3518  023C  2A3E               	goto	u265_22
  3519  023D  07D0               	addwf	___flmul@prod+2,f
  3520  023E                     u265_22:
  3521  023E  0845               	movf	??___flmul+3,w
  3522  023F  1103               	clrz
  3523  0240  1803               	skipnc
  3524  0241  3E01               	addlw	1
  3525  0242  1903               	skipnz
  3526  0243  2A45               	goto	u265_23
  3527  0244  07D1               	addwf	___flmul@prod+3,f
  3528  0245                     u265_23:
  3529  0245  083C               	movf	___flmul@b+2,w
  3530  0246  00C2               	movwf	??___flmul
  3531  0247  0842               	movf	??___flmul,w
  3532  0248  00F0               	movwf	__Umul8_16@multiplicand
  3533  0249  0840               	movf	___flmul@a+2,w
  3534  024A  120A  158A  2270  120A  118A  	fcall	__Umul8_16
  3535  024F  0871               	movf	?__Umul8_16+1,w
  3536  0250  1283               	bcf	3,5	;RP0=0, select bank0
  3537  0251  1303               	bcf	3,6	;RP1=0, select bank0
  3538  0252  00D3               	movwf	___flmul@temp+1
  3539  0253  0870               	movf	?__Umul8_16,w
  3540  0254  00D2               	movwf	___flmul@temp
  3541  0255                     i1l2096:
  3542  0255  0852               	movf	___flmul@temp,w
  3543  0256  00C2               	movwf	??___flmul
  3544  0257  0853               	movf	___flmul@temp+1,w
  3545  0258  00C3               	movwf	??___flmul+1
  3546  0259  01C4               	clrf	??___flmul+2
  3547  025A  01C5               	clrf	??___flmul+3
  3548  025B  3008               	movlw	8
  3549  025C                     u266_25:
  3550  025C  1003               	clrc
  3551  025D  0DC2               	rlf	??___flmul,f
  3552  025E  0DC3               	rlf	??___flmul+1,f
  3553  025F  0DC4               	rlf	??___flmul+2,f
  3554  0260  0DC5               	rlf	??___flmul+3,f
  3555  0261                     u266_20:
  3556  0261  3EFF               	addlw	-1
  3557  0262  1D03               	skipz
  3558  0263  2A5C               	goto	u266_25
  3559  0264  0842               	movf	??___flmul,w
  3560  0265  07CE               	addwf	___flmul@prod,f
  3561  0266  0843               	movf	??___flmul+1,w
  3562  0267  1103               	clrz
  3563  0268  1803               	skipnc
  3564  0269  3E01               	addlw	1
  3565  026A  1903               	skipnz
  3566  026B  2A6D               	goto	u267_21
  3567  026C  07CF               	addwf	___flmul@prod+1,f
  3568  026D                     u267_21:
  3569  026D  0844               	movf	??___flmul+2,w
  3570  026E  1103               	clrz
  3571  026F  1803               	skipnc
  3572  0270  3E01               	addlw	1
  3573  0271  1903               	skipnz
  3574  0272  2A74               	goto	u267_22
  3575  0273  07D0               	addwf	___flmul@prod+2,f
  3576  0274                     u267_22:
  3577  0274  0845               	movf	??___flmul+3,w
  3578  0275  1103               	clrz
  3579  0276  1803               	skipnc
  3580  0277  3E01               	addlw	1
  3581  0278  1903               	skipnz
  3582  0279  2A7B               	goto	u267_23
  3583  027A  07D1               	addwf	___flmul@prod+3,f
  3584  027B                     u267_23:
  3585  027B                     i1l2098:
  3586  027B  0848               	movf	___flmul@grs,w
  3587  027C  00C2               	movwf	??___flmul
  3588  027D  0849               	movf	___flmul@grs+1,w
  3589  027E  00C3               	movwf	??___flmul+1
  3590  027F  084A               	movf	___flmul@grs+2,w
  3591  0280  00C4               	movwf	??___flmul+2
  3592  0281  084B               	movf	___flmul@grs+3,w
  3593  0282  00C5               	movwf	??___flmul+3
  3594  0283  3018               	movlw	24
  3595  0284                     u268_25:
  3596  0284  1003               	clrc
  3597  0285  0CC5               	rrf	??___flmul+3,f
  3598  0286  0CC4               	rrf	??___flmul+2,f
  3599  0287  0CC3               	rrf	??___flmul+1,f
  3600  0288  0CC2               	rrf	??___flmul,f
  3601  0289                     u268_20:
  3602  0289  3EFF               	addlw	-1
  3603  028A  1D03               	skipz
  3604  028B  2A84               	goto	u268_25
  3605  028C  0842               	movf	??___flmul,w
  3606  028D  07CE               	addwf	___flmul@prod,f
  3607  028E  0843               	movf	??___flmul+1,w
  3608  028F  1103               	clrz
  3609  0290  1803               	skipnc
  3610  0291  3E01               	addlw	1
  3611  0292  1903               	skipnz
  3612  0293  2A95               	goto	u269_21
  3613  0294  07CF               	addwf	___flmul@prod+1,f
  3614  0295                     u269_21:
  3615  0295  0844               	movf	??___flmul+2,w
  3616  0296  1103               	clrz
  3617  0297  1803               	skipnc
  3618  0298  3E01               	addlw	1
  3619  0299  1903               	skipnz
  3620  029A  2A9C               	goto	u269_22
  3621  029B  07D0               	addwf	___flmul@prod+2,f
  3622  029C                     u269_22:
  3623  029C  0845               	movf	??___flmul+3,w
  3624  029D  1103               	clrz
  3625  029E  1803               	skipnc
  3626  029F  3E01               	addlw	1
  3627  02A0  1903               	skipnz
  3628  02A1  2AA3               	goto	u269_23
  3629  02A2  07D1               	addwf	___flmul@prod+3,f
  3630  02A3                     u269_23:
  3631  02A3                     i1l2100:
  3632  02A3  3008               	movlw	8
  3633  02A4  00C2               	movwf	??___flmul
  3634  02A5                     u270_25:
  3635  02A5  1003               	clrc
  3636  02A6  0DC8               	rlf	___flmul@grs,f
  3637  02A7  0DC9               	rlf	___flmul@grs+1,f
  3638  02A8  0DCA               	rlf	___flmul@grs+2,f
  3639  02A9  0DCB               	rlf	___flmul@grs+3,f
  3640  02AA  0BC2               	decfsz	??___flmul,f
  3641  02AB  2AA5               	goto	u270_25
  3642  02AC                     i1l2102:
  3643  02AC  084D               	movf	___flmul@bexp,w
  3644  02AD  074C               	addwf	___flmul@aexp,w
  3645  02AE  00C2               	movwf	??___flmul
  3646  02AF  01C3               	clrf	??___flmul+1
  3647  02B0  0DC3               	rlf	??___flmul+1,f
  3648  02B1  0842               	movf	??___flmul,w
  3649  02B2  3E82               	addlw	130
  3650  02B3  00D2               	movwf	___flmul@temp
  3651  02B4  0843               	movf	??___flmul+1,w
  3652  02B5  1803               	skipnc
  3653  02B6  3E01               	addlw	1
  3654  02B7  3EFF               	addlw	255
  3655  02B8  00D3               	movwf	___flmul@temp+1
  3656  02B9  2AD7               	goto	i1l2114
  3657  02BA                     i1l2104:
  3658  02BA  3001               	movlw	1
  3659  02BB  00C2               	movwf	??___flmul
  3660  02BC                     u271_25:
  3661  02BC  1003               	clrc
  3662  02BD  0DCE               	rlf	___flmul@prod,f
  3663  02BE  0DCF               	rlf	___flmul@prod+1,f
  3664  02BF  0DD0               	rlf	___flmul@prod+2,f
  3665  02C0  0DD1               	rlf	___flmul@prod+3,f
  3666  02C1  0BC2               	decfsz	??___flmul,f
  3667  02C2  2ABC               	goto	u271_25
  3668  02C3                     i1l2106:
  3669  02C3  1FCB               	btfss	___flmul@grs+3,7
  3670  02C4  2AC6               	goto	u272_21
  3671  02C5  2AC7               	goto	u272_20
  3672  02C6                     u272_21:
  3673  02C6  2AC8               	goto	i1l2110
  3674  02C7                     u272_20:
  3675  02C7                     i1l2108:
  3676  02C7  144E               	bsf	___flmul@prod,0
  3677  02C8                     i1l2110:
  3678  02C8  3001               	movlw	1
  3679  02C9  00C2               	movwf	??___flmul
  3680  02CA                     u273_25:
  3681  02CA  1003               	clrc
  3682  02CB  0DC8               	rlf	___flmul@grs,f
  3683  02CC  0DC9               	rlf	___flmul@grs+1,f
  3684  02CD  0DCA               	rlf	___flmul@grs+2,f
  3685  02CE  0DCB               	rlf	___flmul@grs+3,f
  3686  02CF  0BC2               	decfsz	??___flmul,f
  3687  02D0  2ACA               	goto	u273_25
  3688  02D1                     i1l2112:
  3689  02D1  30FF               	movlw	255
  3690  02D2  07D2               	addwf	___flmul@temp,f
  3691  02D3  1803               	skipnc
  3692  02D4  0AD3               	incf	___flmul@temp+1,f
  3693  02D5  30FF               	movlw	255
  3694  02D6  07D3               	addwf	___flmul@temp+1,f
  3695  02D7                     i1l2114:
  3696  02D7  1FD0               	btfss	___flmul@prod+2,7
  3697  02D8  2ADA               	goto	u274_21
  3698  02D9  2ADB               	goto	u274_20
  3699  02DA                     u274_21:
  3700  02DA  2ABA               	goto	i1l2104
  3701  02DB                     u274_20:
  3702  02DB                     i1l2116:
  3703  02DB  01CC               	clrf	___flmul@aexp
  3704  02DC                     i1l2118:
  3705  02DC  1FCB               	btfss	___flmul@grs+3,7
  3706  02DD  2ADF               	goto	u275_21
  3707  02DE  2AE0               	goto	u275_20
  3708  02DF                     u275_21:
  3709  02DF  2AFC               	goto	i1l2126
  3710  02E0                     u275_20:
  3711  02E0                     i1l2120:
  3712  02E0  30FF               	movlw	255
  3713  02E1  0548               	andwf	___flmul@grs,w
  3714  02E2  00C2               	movwf	??___flmul
  3715  02E3  30FF               	movlw	255
  3716  02E4  0549               	andwf	___flmul@grs+1,w
  3717  02E5  00C3               	movwf	??___flmul+1
  3718  02E6  30FF               	movlw	255
  3719  02E7  054A               	andwf	___flmul@grs+2,w
  3720  02E8  00C4               	movwf	??___flmul+2
  3721  02E9  307F               	movlw	127
  3722  02EA  054B               	andwf	___flmul@grs+3,w
  3723  02EB  00C5               	movwf	??___flmul+3
  3724  02EC  0845               	movf	??___flmul+3,w
  3725  02ED  0444               	iorwf	??___flmul+2,w
  3726  02EE  0443               	iorwf	??___flmul+1,w
  3727  02EF  0442               	iorwf	??___flmul,w
  3728  02F0  1903               	skipnz
  3729  02F1  2AF3               	goto	u276_21
  3730  02F2  2AF4               	goto	u276_20
  3731  02F3                     u276_21:
  3732  02F3  2AF7               	goto	i1l683
  3733  02F4                     u276_20:
  3734  02F4                     i1l2122:
  3735  02F4  01CC               	clrf	___flmul@aexp
  3736  02F5  0ACC               	incf	___flmul@aexp,f
  3737  02F6  2AFC               	goto	i1l2126
  3738  02F7                     i1l683:
  3739  02F7  1C4E               	btfss	___flmul@prod,0
  3740  02F8  2AFA               	goto	u277_21
  3741  02F9  2AFB               	goto	u277_20
  3742  02FA                     u277_21:
  3743  02FA  2AFC               	goto	i1l2126
  3744  02FB                     u277_20:
  3745  02FB  2AF4               	goto	i1l2122
  3746  02FC                     i1l2126:
  3747  02FC  084C               	movf	___flmul@aexp,w
  3748  02FD  1903               	btfsc	3,2
  3749  02FE  2B00               	goto	u278_21
  3750  02FF  2B01               	goto	u278_20
  3751  0300                     u278_21:
  3752  0300  2B32               	goto	i1l2136
  3753  0301                     u278_20:
  3754  0301                     i1l2128:
  3755  0301  3001               	movlw	1
  3756  0302  07CE               	addwf	___flmul@prod,f
  3757  0303  3000               	movlw	0
  3758  0304  1803               	skipnc
  3759  0305  3001               	movlw	1
  3760  0306  07CF               	addwf	___flmul@prod+1,f
  3761  0307  3000               	movlw	0
  3762  0308  1803               	skipnc
  3763  0309  3001               	movlw	1
  3764  030A  07D0               	addwf	___flmul@prod+2,f
  3765  030B  3000               	movlw	0
  3766  030C  1803               	skipnc
  3767  030D  3001               	movlw	1
  3768  030E  07D1               	addwf	___flmul@prod+3,f
  3769  030F                     i1l2130:
  3770  030F  1C51               	btfss	___flmul@prod+3,0
  3771  0310  2B12               	goto	u279_21
  3772  0311  2B13               	goto	u279_20
  3773  0312                     u279_21:
  3774  0312  2B32               	goto	i1l2136
  3775  0313                     u279_20:
  3776  0313                     i1l2132:
  3777  0313  084E               	movf	___flmul@prod,w
  3778  0314  00C2               	movwf	??___flmul
  3779  0315  084F               	movf	___flmul@prod+1,w
  3780  0316  00C3               	movwf	??___flmul+1
  3781  0317  0850               	movf	___flmul@prod+2,w
  3782  0318  00C4               	movwf	??___flmul+2
  3783  0319  0851               	movf	___flmul@prod+3,w
  3784  031A  00C5               	movwf	??___flmul+3
  3785  031B  3001               	movlw	1
  3786  031C  00C6               	movwf	??___flmul+4
  3787  031D                     u280_25:
  3788  031D  0D45               	rlf	??___flmul+3,w
  3789  031E  0CC5               	rrf	??___flmul+3,f
  3790  031F  0CC4               	rrf	??___flmul+2,f
  3791  0320  0CC3               	rrf	??___flmul+1,f
  3792  0321  0CC2               	rrf	??___flmul,f
  3793  0322                     u280_20:
  3794  0322  0BC6               	decfsz	??___flmul+4,f
  3795  0323  2B1D               	goto	u280_25
  3796  0324  0845               	movf	??___flmul+3,w
  3797  0325  00D1               	movwf	___flmul@prod+3
  3798  0326  0844               	movf	??___flmul+2,w
  3799  0327  00D0               	movwf	___flmul@prod+2
  3800  0328  0843               	movf	??___flmul+1,w
  3801  0329  00CF               	movwf	___flmul@prod+1
  3802  032A  0842               	movf	??___flmul,w
  3803  032B  00CE               	movwf	___flmul@prod
  3804  032C                     i1l2134:
  3805  032C  3001               	movlw	1
  3806  032D  07D2               	addwf	___flmul@temp,f
  3807  032E  1803               	skipnc
  3808  032F  0AD3               	incf	___flmul@temp+1,f
  3809  0330  3000               	movlw	0
  3810  0331  07D3               	addwf	___flmul@temp+1,f
  3811  0332                     i1l2136:
  3812  0332  0853               	movf	___flmul@temp+1,w
  3813  0333  3A80               	xorlw	128
  3814  0334  00FF               	movwf	btemp+1
  3815  0335  3080               	movlw	128
  3816  0336  027F               	subwf	btemp+1,w
  3817  0337  1D03               	skipz
  3818  0338  2B3B               	goto	u281_25
  3819  0339  30FF               	movlw	255
  3820  033A  0252               	subwf	___flmul@temp,w
  3821  033B                     u281_25:
  3822  033B  1C03               	skipc
  3823  033C  2B3E               	goto	u281_21
  3824  033D  2B3F               	goto	u281_20
  3825  033E                     u281_21:
  3826  033E  2B4A               	goto	i1l2140
  3827  033F                     u281_20:
  3828  033F                     i1l2138:
  3829  033F  307F               	movlw	127
  3830  0340  1283               	bcf	3,5	;RP0=0, select bank0
  3831  0341  1303               	bcf	3,6	;RP1=0, select bank0
  3832  0342  00D1               	movwf	___flmul@prod+3
  3833  0343  3080               	movlw	128
  3834  0344  00D0               	movwf	___flmul@prod+2
  3835  0345  3000               	movlw	0
  3836  0346  00CF               	movwf	___flmul@prod+1
  3837  0347  3000               	movlw	0
  3838  0348  00CE               	movwf	___flmul@prod
  3839  0349  2B7F               	goto	i1l689
  3840  034A                     i1l2140:
  3841  034A  1283               	bcf	3,5	;RP0=0, select bank0
  3842  034B  1303               	bcf	3,6	;RP1=0, select bank0
  3843  034C  0853               	movf	___flmul@temp+1,w
  3844  034D  3A80               	xorlw	128
  3845  034E  00FF               	movwf	btemp+1
  3846  034F  3080               	movlw	128
  3847  0350  027F               	subwf	btemp+1,w
  3848  0351  1D03               	skipz
  3849  0352  2B55               	goto	u282_25
  3850  0353  3001               	movlw	1
  3851  0354  0252               	subwf	___flmul@temp,w
  3852  0355                     u282_25:
  3853  0355  1803               	skipnc
  3854  0356  2B58               	goto	u282_21
  3855  0357  2B59               	goto	u282_20
  3856  0358                     u282_21:
  3857  0358  2B65               	goto	i1l2146
  3858  0359                     u282_20:
  3859  0359                     i1l2142:
  3860  0359  3000               	movlw	0
  3861  035A  1283               	bcf	3,5	;RP0=0, select bank0
  3862  035B  1303               	bcf	3,6	;RP1=0, select bank0
  3863  035C  00D1               	movwf	___flmul@prod+3
  3864  035D  3000               	movlw	0
  3865  035E  00D0               	movwf	___flmul@prod+2
  3866  035F  3000               	movlw	0
  3867  0360  00CF               	movwf	___flmul@prod+1
  3868  0361  3000               	movlw	0
  3869  0362  00CE               	movwf	___flmul@prod
  3870  0363                     i1l2144:
  3871  0363  01C7               	clrf	___flmul@sign
  3872  0364  2B7F               	goto	i1l689
  3873  0365                     i1l2146:
  3874  0365  1283               	bcf	3,5	;RP0=0, select bank0
  3875  0366  1303               	bcf	3,6	;RP1=0, select bank0
  3876  0367  0852               	movf	___flmul@temp,w
  3877  0368  00C2               	movwf	??___flmul
  3878  0369  0842               	movf	??___flmul,w
  3879  036A  00CD               	movwf	___flmul@bexp
  3880  036B  30FF               	movlw	255
  3881  036C  05CE               	andwf	___flmul@prod,f
  3882  036D  30FF               	movlw	255
  3883  036E  05CF               	andwf	___flmul@prod+1,f
  3884  036F  307F               	movlw	127
  3885  0370  05D0               	andwf	___flmul@prod+2,f
  3886  0371  3000               	movlw	0
  3887  0372  05D1               	andwf	___flmul@prod+3,f
  3888  0373                     i1l2148:
  3889  0373  1C4D               	btfss	___flmul@bexp,0
  3890  0374  2B76               	goto	u283_21
  3891  0375  2B77               	goto	u283_20
  3892  0376                     u283_21:
  3893  0376  2B78               	goto	i1l2152
  3894  0377                     u283_20:
  3895  0377                     i1l2150:
  3896  0377  17D0               	bsf	___flmul@prod+2,7
  3897  0378                     i1l2152:
  3898  0378  084D               	movf	___flmul@bexp,w
  3899  0379  00C2               	movwf	??___flmul
  3900  037A  1003               	clrc
  3901  037B  0C42               	rrf	??___flmul,w
  3902  037C  00C3               	movwf	??___flmul+1
  3903  037D  0843               	movf	??___flmul+1,w
  3904  037E  00D1               	movwf	___flmul@prod+3
  3905  037F                     i1l689:
  3906  037F  0847               	movf	___flmul@sign,w
  3907  0380  00C2               	movwf	??___flmul
  3908  0381  0842               	movf	??___flmul,w
  3909  0382  04D1               	iorwf	___flmul@prod+3,f
  3910  0383                     i1l2154:
  3911  0383  0851               	movf	___flmul@prod+3,w
  3912  0384  00BD               	movwf	?___flmul+3
  3913  0385  0850               	movf	___flmul@prod+2,w
  3914  0386  00BC               	movwf	?___flmul+2
  3915  0387  084F               	movf	___flmul@prod+1,w
  3916  0388  00BB               	movwf	?___flmul+1
  3917  0389  084E               	movf	___flmul@prod,w
  3918  038A  00BA               	movwf	?___flmul
  3919  038B                     i1l677:
  3920  038B  0008               	return
  3921  038C                     __end_of___flmul:
  3922                           
  3923                           	psect	text9
  3924  0A70                     __ptext9:	
  3925 ;; *************** function __Umul8_16 *****************
  3926 ;; Defined at:
  3927 ;;		line 4 in file "C:\Program Files\Microchip\xc8\v2.35\pic\sources\c90\common\Umul8_16.c"
  3928 ;; Parameters:    Size  Location     Type
  3929 ;;  multiplier      1    wreg     unsigned char 
  3930 ;;  multiplicand    1    0[COMMON] unsigned char 
  3931 ;; Auto vars:     Size  Location     Type
  3932 ;;  multiplier      1    8[COMMON] unsigned char 
  3933 ;;  word_mpld       2    6[COMMON] unsigned int 
  3934 ;;  product         2    4[COMMON] unsigned int 
  3935 ;; Return value:  Size  Location     Type
  3936 ;;                  2    0[COMMON] unsigned int 
  3937 ;; Registers used:
  3938 ;;		wreg, status,2, status,0
  3939 ;; Tracked objects:
  3940 ;;		On entry : 0/0
  3941 ;;		On exit  : 0/0
  3942 ;;		Unchanged: 0/0
  3943 ;; Data sizes:     COMMON   BANK0   BANK1   BANK3   BANK2
  3944 ;;      Params:         2       0       0       0       0
  3945 ;;      Locals:         5       0       0       0       0
  3946 ;;      Temps:          2       0       0       0       0
  3947 ;;      Totals:         9       0       0       0       0
  3948 ;;Total ram usage:        9 bytes
  3949 ;; Hardware stack levels used: 1
  3950 ;; This function calls:
  3951 ;;		Nothing
  3952 ;; This function is called by:
  3953 ;;		___flmul
  3954 ;; This function uses a non-reentrant model
  3955 ;;
  3956                           
  3957  0A70                     __Umul8_16:	
  3958                           ;psect for function __Umul8_16
  3959                           
  3960                           
  3961                           ;incstack = 0
  3962                           ; Regs used in __Umul8_16: [wreg+status,2+status,0]
  3963                           ;__Umul8_16@multiplier stored from wreg
  3964  0A70  00F8               	movwf	__Umul8_16@multiplier
  3965  0A71                     i1l1632:
  3966  0A71  01F4               	clrf	__Umul8_16@product
  3967  0A72  01F5               	clrf	__Umul8_16@product+1
  3968  0A73                     i1l1634:
  3969  0A73  0870               	movf	__Umul8_16@multiplicand,w
  3970  0A74  00F2               	movwf	??__Umul8_16
  3971  0A75  01F3               	clrf	??__Umul8_16+1
  3972  0A76  0872               	movf	??__Umul8_16,w
  3973  0A77  00F6               	movwf	__Umul8_16@word_mpld
  3974  0A78  0873               	movf	??__Umul8_16+1,w
  3975  0A79  00F7               	movwf	__Umul8_16@word_mpld+1
  3976  0A7A                     i1l1636:
  3977  0A7A  1C78               	btfss	__Umul8_16@multiplier,0
  3978  0A7B  2A7D               	goto	u159_21
  3979  0A7C  2A7E               	goto	u159_20
  3980  0A7D                     u159_21:
  3981  0A7D  2A84               	goto	i1l696
  3982  0A7E                     u159_20:
  3983  0A7E                     i1l1638:
  3984  0A7E  0876               	movf	__Umul8_16@word_mpld,w
  3985  0A7F  07F4               	addwf	__Umul8_16@product,f
  3986  0A80  1803               	skipnc
  3987  0A81  0AF5               	incf	__Umul8_16@product+1,f
  3988  0A82  0877               	movf	__Umul8_16@word_mpld+1,w
  3989  0A83  07F5               	addwf	__Umul8_16@product+1,f
  3990  0A84                     i1l696:
  3991  0A84  3001               	movlw	1
  3992  0A85                     u160_25:
  3993  0A85  1003               	clrc
  3994  0A86  0DF6               	rlf	__Umul8_16@word_mpld,f
  3995  0A87  0DF7               	rlf	__Umul8_16@word_mpld+1,f
  3996  0A88  3EFF               	addlw	-1
  3997  0A89  1D03               	skipz
  3998  0A8A  2A85               	goto	u160_25
  3999  0A8B  1003               	clrc
  4000  0A8C  0CF8               	rrf	__Umul8_16@multiplier,f
  4001  0A8D                     i1l1640:
  4002  0A8D  0878               	movf	__Umul8_16@multiplier,w
  4003  0A8E  1D03               	btfss	3,2
  4004  0A8F  2A91               	goto	u161_21
  4005  0A90  2A92               	goto	u161_20
  4006  0A91                     u161_21:
  4007  0A91  2A7A               	goto	i1l1636
  4008  0A92                     u161_20:
  4009  0A92                     i1l1642:
  4010  0A92  0875               	movf	__Umul8_16@product+1,w
  4011  0A93  00F1               	movwf	?__Umul8_16+1
  4012  0A94  0874               	movf	__Umul8_16@product,w
  4013  0A95  00F0               	movwf	?__Umul8_16
  4014  0A96                     i1l698:
  4015  0A96  0008               	return
  4016  0A97                     __end_of__Umul8_16:
  4017                           
  4018                           	psect	text10
  4019  0614                     __ptext10:	
  4020 ;; *************** function ___fldiv *****************
  4021 ;; Defined at:
  4022 ;;		line 8 in file "C:\Program Files\Microchip\xc8\v2.35\pic\sources\c90\common\sprcdiv.c"
  4023 ;; Parameters:    Size  Location     Type
  4024 ;;  a               4    0[BANK0 ] unsigned int 
  4025 ;;  b               4    4[BANK0 ] unsigned int 
  4026 ;; Auto vars:     Size  Location     Type
  4027 ;;  grs             4   20[BANK0 ] unsigned long 
  4028 ;;  rem             4   13[BANK0 ] unsigned long 
  4029 ;;  new_exp         2   18[BANK0 ] int 
  4030 ;;  aexp            1   25[BANK0 ] unsigned char 
  4031 ;;  bexp            1   24[BANK0 ] unsigned char 
  4032 ;;  sign            1   17[BANK0 ] unsigned char 
  4033 ;; Return value:  Size  Location     Type
  4034 ;;                  4    0[BANK0 ] unsigned char 
  4035 ;; Registers used:
  4036 ;;		wreg, status,2, status,0, btemp+1
  4037 ;; Tracked objects:
  4038 ;;		On entry : 0/0
  4039 ;;		On exit  : 0/0
  4040 ;;		Unchanged: 0/0
  4041 ;; Data sizes:     COMMON   BANK0   BANK1   BANK3   BANK2
  4042 ;;      Params:         0       8       0       0       0
  4043 ;;      Locals:         0      13       0       0       0
  4044 ;;      Temps:          0       5       0       0       0
  4045 ;;      Totals:         0      26       0       0       0
  4046 ;;Total ram usage:       26 bytes
  4047 ;; Hardware stack levels used: 1
  4048 ;; This function calls:
  4049 ;;		Nothing
  4050 ;; This function is called by:
  4051 ;;		_map
  4052 ;; This function uses a non-reentrant model
  4053 ;;
  4054                           
  4055  0614                     ___fldiv:	
  4056                           ;psect for function ___fldiv
  4057                           
  4058  0614                     i1l1876:	
  4059                           ;incstack = 0
  4060                           ; Regs used in ___fldiv: [wreg+status,2+status,0+btemp+1]
  4061                           
  4062  0614  1283               	bcf	3,5	;RP0=0, select bank0
  4063  0615  1303               	bcf	3,6	;RP1=0, select bank0
  4064  0616  0827               	movf	___fldiv@b+3,w
  4065  0617  3980               	andlw	128
  4066  0618  00A8               	movwf	??___fldiv
  4067  0619  0828               	movf	??___fldiv,w
  4068  061A  00B1               	movwf	___fldiv@sign
  4069  061B                     i1l1878:
  4070  061B  0827               	movf	___fldiv@b+3,w
  4071  061C  00A8               	movwf	??___fldiv
  4072  061D  0728               	addwf	??___fldiv,w
  4073  061E  00A9               	movwf	??___fldiv+1
  4074  061F  0829               	movf	??___fldiv+1,w
  4075  0620  00B8               	movwf	___fldiv@bexp
  4076  0621                     i1l1880:
  4077  0621  1FA6               	btfss	___fldiv@b+2,7
  4078  0622  2E24               	goto	u218_21
  4079  0623  2E25               	goto	u218_20
  4080  0624                     u218_21:
  4081  0624  2E26               	goto	i1l1884
  4082  0625                     u218_20:
  4083  0625                     i1l1882:
  4084  0625  1438               	bsf	___fldiv@bexp,0
  4085  0626                     i1l1884:
  4086  0626  0838               	movf	___fldiv@bexp,w
  4087  0627  1903               	btfsc	3,2
  4088  0628  2E2A               	goto	u219_21
  4089  0629  2E2B               	goto	u219_20
  4090  062A                     u219_21:
  4091  062A  2E3B               	goto	i1l1894
  4092  062B                     u219_20:
  4093  062B                     i1l1886:
  4094  062B  0A38               	incf	___fldiv@bexp,w
  4095  062C  1D03               	btfss	3,2
  4096  062D  2E2F               	goto	u220_21
  4097  062E  2E30               	goto	u220_20
  4098  062F                     u220_21:
  4099  062F  2E38               	goto	i1l1890
  4100  0630                     u220_20:
  4101  0630                     i1l1888:
  4102  0630  3000               	movlw	0
  4103  0631  00A7               	movwf	___fldiv@b+3
  4104  0632  3000               	movlw	0
  4105  0633  00A6               	movwf	___fldiv@b+2
  4106  0634  3000               	movlw	0
  4107  0635  00A5               	movwf	___fldiv@b+1
  4108  0636  3000               	movlw	0
  4109  0637  00A4               	movwf	___fldiv@b
  4110  0638                     i1l1890:
  4111  0638  17A6               	bsf	___fldiv@b+2,7
  4112  0639                     i1l1892:
  4113  0639  01A7               	clrf	___fldiv@b+3
  4114  063A  2E43               	goto	i1l1896
  4115  063B                     i1l1894:
  4116  063B  3000               	movlw	0
  4117  063C  00A7               	movwf	___fldiv@b+3
  4118  063D  3000               	movlw	0
  4119  063E  00A6               	movwf	___fldiv@b+2
  4120  063F  3000               	movlw	0
  4121  0640  00A5               	movwf	___fldiv@b+1
  4122  0641  3000               	movlw	0
  4123  0642  00A4               	movwf	___fldiv@b
  4124  0643                     i1l1896:
  4125  0643  0823               	movf	___fldiv@a+3,w
  4126  0644  3980               	andlw	128
  4127  0645  00A8               	movwf	??___fldiv
  4128  0646  0828               	movf	??___fldiv,w
  4129  0647  06B1               	xorwf	___fldiv@sign,f
  4130  0648                     i1l1898:
  4131  0648  0823               	movf	___fldiv@a+3,w
  4132  0649  00A8               	movwf	??___fldiv
  4133  064A  0728               	addwf	??___fldiv,w
  4134  064B  00A9               	movwf	??___fldiv+1
  4135  064C  0829               	movf	??___fldiv+1,w
  4136  064D  00B9               	movwf	___fldiv@aexp
  4137  064E                     i1l1900:
  4138  064E  1FA2               	btfss	___fldiv@a+2,7
  4139  064F  2E51               	goto	u221_21
  4140  0650  2E52               	goto	u221_20
  4141  0651                     u221_21:
  4142  0651  2E53               	goto	i1l1904
  4143  0652                     u221_20:
  4144  0652                     i1l1902:
  4145  0652  1439               	bsf	___fldiv@aexp,0
  4146  0653                     i1l1904:
  4147  0653  0839               	movf	___fldiv@aexp,w
  4148  0654  1903               	btfsc	3,2
  4149  0655  2E57               	goto	u222_21
  4150  0656  2E58               	goto	u222_20
  4151  0657                     u222_21:
  4152  0657  2E68               	goto	i1l1914
  4153  0658                     u222_20:
  4154  0658                     i1l1906:
  4155  0658  0A39               	incf	___fldiv@aexp,w
  4156  0659  1D03               	btfss	3,2
  4157  065A  2E5C               	goto	u223_21
  4158  065B  2E5D               	goto	u223_20
  4159  065C                     u223_21:
  4160  065C  2E65               	goto	i1l1910
  4161  065D                     u223_20:
  4162  065D                     i1l1908:
  4163  065D  3000               	movlw	0
  4164  065E  00A3               	movwf	___fldiv@a+3
  4165  065F  3000               	movlw	0
  4166  0660  00A2               	movwf	___fldiv@a+2
  4167  0661  3000               	movlw	0
  4168  0662  00A1               	movwf	___fldiv@a+1
  4169  0663  3000               	movlw	0
  4170  0664  00A0               	movwf	___fldiv@a
  4171  0665                     i1l1910:
  4172  0665  17A2               	bsf	___fldiv@a+2,7
  4173  0666                     i1l1912:
  4174  0666  01A3               	clrf	___fldiv@a+3
  4175  0667  2E70               	goto	i1l637
  4176  0668                     i1l1914:
  4177  0668  3000               	movlw	0
  4178  0669  00A3               	movwf	___fldiv@a+3
  4179  066A  3000               	movlw	0
  4180  066B  00A2               	movwf	___fldiv@a+2
  4181  066C  3000               	movlw	0
  4182  066D  00A1               	movwf	___fldiv@a+1
  4183  066E  3000               	movlw	0
  4184  066F  00A0               	movwf	___fldiv@a
  4185  0670                     i1l637:
  4186  0670  0823               	movf	___fldiv@a+3,w
  4187  0671  0422               	iorwf	___fldiv@a+2,w
  4188  0672  0421               	iorwf	___fldiv@a+1,w
  4189  0673  0420               	iorwf	___fldiv@a,w
  4190  0674  1D03               	skipz
  4191  0675  2E77               	goto	u224_21
  4192  0676  2E78               	goto	u224_20
  4193  0677                     u224_21:
  4194  0677  2E91               	goto	i1l1924
  4195  0678                     u224_20:
  4196  0678                     i1l1916:
  4197  0678  3000               	movlw	0
  4198  0679  00A7               	movwf	___fldiv@b+3
  4199  067A  3000               	movlw	0
  4200  067B  00A6               	movwf	___fldiv@b+2
  4201  067C  3000               	movlw	0
  4202  067D  00A5               	movwf	___fldiv@b+1
  4203  067E  3000               	movlw	0
  4204  067F  00A4               	movwf	___fldiv@b
  4205  0680  3080               	movlw	128
  4206  0681  04A6               	iorwf	___fldiv@b+2,f
  4207  0682  307F               	movlw	127
  4208  0683  04A7               	iorwf	___fldiv@b+3,f
  4209  0684                     i1l1918:
  4210  0684  0831               	movf	___fldiv@sign,w
  4211  0685  00A8               	movwf	??___fldiv
  4212  0686  0828               	movf	??___fldiv,w
  4213  0687  04A7               	iorwf	___fldiv@b+3,f
  4214  0688                     i1l1920:
  4215  0688  0827               	movf	___fldiv@b+3,w
  4216  0689  00A3               	movwf	?___fldiv+3
  4217  068A  0826               	movf	___fldiv@b+2,w
  4218  068B  00A2               	movwf	?___fldiv+2
  4219  068C  0825               	movf	___fldiv@b+1,w
  4220  068D  00A1               	movwf	?___fldiv+1
  4221  068E  0824               	movf	___fldiv@b,w
  4222  068F  00A0               	movwf	?___fldiv
  4223  0690  2FF0               	goto	i1l639
  4224  0691                     i1l1924:
  4225  0691  0838               	movf	___fldiv@bexp,w
  4226  0692  1D03               	btfss	3,2
  4227  0693  2E95               	goto	u225_21
  4228  0694  2E96               	goto	u225_20
  4229  0695                     u225_21:
  4230  0695  2E9F               	goto	i1l1930
  4231  0696                     u225_20:
  4232  0696                     i1l1926:
  4233  0696  3000               	movlw	0
  4234  0697  00A3               	movwf	?___fldiv+3
  4235  0698  3000               	movlw	0
  4236  0699  00A2               	movwf	?___fldiv+2
  4237  069A  3000               	movlw	0
  4238  069B  00A1               	movwf	?___fldiv+1
  4239  069C  3000               	movlw	0
  4240  069D  00A0               	movwf	?___fldiv
  4241  069E  2FF0               	goto	i1l639
  4242  069F                     i1l1930:
  4243  069F  0838               	movf	___fldiv@bexp,w
  4244  06A0  00A8               	movwf	??___fldiv
  4245  06A1  01A9               	clrf	??___fldiv+1
  4246  06A2  0829               	movf	??___fldiv+1,w
  4247  06A3  00AB               	movwf	??___fldiv+3
  4248  06A4  0839               	movf	___fldiv@aexp,w
  4249  06A5  0228               	subwf	??___fldiv,w
  4250  06A6  00AA               	movwf	??___fldiv+2
  4251  06A7  1C03               	skipc
  4252  06A8  03AB               	decf	??___fldiv+3,f
  4253  06A9  082A               	movf	??___fldiv+2,w
  4254  06AA  3E7F               	addlw	127
  4255  06AB  00B2               	movwf	___fldiv@new_exp
  4256  06AC  082B               	movf	??___fldiv+3,w
  4257  06AD  1803               	skipnc
  4258  06AE  3E01               	addlw	1
  4259  06AF  3E00               	addlw	0
  4260  06B0  00B3               	movwf	___fldiv@new_exp+1
  4261  06B1                     i1l1932:
  4262  06B1  0827               	movf	___fldiv@b+3,w
  4263  06B2  00B0               	movwf	___fldiv@rem+3
  4264  06B3  0826               	movf	___fldiv@b+2,w
  4265  06B4  00AF               	movwf	___fldiv@rem+2
  4266  06B5  0825               	movf	___fldiv@b+1,w
  4267  06B6  00AE               	movwf	___fldiv@rem+1
  4268  06B7  0824               	movf	___fldiv@b,w
  4269  06B8  00AD               	movwf	___fldiv@rem
  4270  06B9                     i1l1934:
  4271  06B9  3000               	movlw	0
  4272  06BA  00A7               	movwf	___fldiv@b+3
  4273  06BB  3000               	movlw	0
  4274  06BC  00A6               	movwf	___fldiv@b+2
  4275  06BD  3000               	movlw	0
  4276  06BE  00A5               	movwf	___fldiv@b+1
  4277  06BF  3000               	movlw	0
  4278  06C0  00A4               	movwf	___fldiv@b
  4279  06C1                     i1l1936:
  4280  06C1  3000               	movlw	0
  4281  06C2  00B7               	movwf	___fldiv@grs+3
  4282  06C3  3000               	movlw	0
  4283  06C4  00B6               	movwf	___fldiv@grs+2
  4284  06C5  3000               	movlw	0
  4285  06C6  00B5               	movwf	___fldiv@grs+1
  4286  06C7  3000               	movlw	0
  4287  06C8  00B4               	movwf	___fldiv@grs
  4288  06C9                     i1l1938:
  4289  06C9  01B9               	clrf	___fldiv@aexp
  4290  06CA  2F15               	goto	i1l1958
  4291  06CB                     i1l1940:
  4292  06CB  0839               	movf	___fldiv@aexp,w
  4293  06CC  1903               	btfsc	3,2
  4294  06CD  2ECF               	goto	u226_21
  4295  06CE  2ED0               	goto	u226_20
  4296  06CF                     u226_21:
  4297  06CF  2EF0               	goto	i1l1950
  4298  06D0                     u226_20:
  4299  06D0                     i1l1942:
  4300  06D0  3001               	movlw	1
  4301  06D1  00A8               	movwf	??___fldiv
  4302  06D2                     u227_25:
  4303  06D2  1003               	clrc
  4304  06D3  0DAD               	rlf	___fldiv@rem,f
  4305  06D4  0DAE               	rlf	___fldiv@rem+1,f
  4306  06D5  0DAF               	rlf	___fldiv@rem+2,f
  4307  06D6  0DB0               	rlf	___fldiv@rem+3,f
  4308  06D7  0BA8               	decfsz	??___fldiv,f
  4309  06D8  2ED2               	goto	u227_25
  4310  06D9  3001               	movlw	1
  4311  06DA  00A8               	movwf	??___fldiv
  4312  06DB                     u228_25:
  4313  06DB  1003               	clrc
  4314  06DC  0DA4               	rlf	___fldiv@b,f
  4315  06DD  0DA5               	rlf	___fldiv@b+1,f
  4316  06DE  0DA6               	rlf	___fldiv@b+2,f
  4317  06DF  0DA7               	rlf	___fldiv@b+3,f
  4318  06E0  0BA8               	decfsz	??___fldiv,f
  4319  06E1  2EDB               	goto	u228_25
  4320  06E2                     i1l1944:
  4321  06E2  1FB7               	btfss	___fldiv@grs+3,7
  4322  06E3  2EE5               	goto	u229_21
  4323  06E4  2EE6               	goto	u229_20
  4324  06E5                     u229_21:
  4325  06E5  2EE7               	goto	i1l1948
  4326  06E6                     u229_20:
  4327  06E6                     i1l1946:
  4328  06E6  1424               	bsf	___fldiv@b,0
  4329  06E7                     i1l1948:
  4330  06E7  3001               	movlw	1
  4331  06E8  00A8               	movwf	??___fldiv
  4332  06E9                     u230_25:
  4333  06E9  1003               	clrc
  4334  06EA  0DB4               	rlf	___fldiv@grs,f
  4335  06EB  0DB5               	rlf	___fldiv@grs+1,f
  4336  06EC  0DB6               	rlf	___fldiv@grs+2,f
  4337  06ED  0DB7               	rlf	___fldiv@grs+3,f
  4338  06EE  0BA8               	decfsz	??___fldiv,f
  4339  06EF  2EE9               	goto	u230_25
  4340  06F0                     i1l1950:
  4341  06F0  0823               	movf	___fldiv@a+3,w
  4342  06F1  0230               	subwf	___fldiv@rem+3,w
  4343  06F2  1D03               	skipz
  4344  06F3  2EFE               	goto	u231_25
  4345  06F4  0822               	movf	___fldiv@a+2,w
  4346  06F5  022F               	subwf	___fldiv@rem+2,w
  4347  06F6  1D03               	skipz
  4348  06F7  2EFE               	goto	u231_25
  4349  06F8  0821               	movf	___fldiv@a+1,w
  4350  06F9  022E               	subwf	___fldiv@rem+1,w
  4351  06FA  1D03               	skipz
  4352  06FB  2EFE               	goto	u231_25
  4353  06FC  0820               	movf	___fldiv@a,w
  4354  06FD  022D               	subwf	___fldiv@rem,w
  4355  06FE                     u231_25:
  4356  06FE  1C03               	skipc
  4357  06FF  2F01               	goto	u231_21
  4358  0700  2F02               	goto	u231_20
  4359  0701                     u231_21:
  4360  0701  2F11               	goto	i1l1956
  4361  0702                     u231_20:
  4362  0702                     i1l1952:
  4363  0702  1737               	bsf	___fldiv@grs+3,6
  4364  0703                     i1l1954:
  4365  0703  0820               	movf	___fldiv@a,w
  4366  0704  02AD               	subwf	___fldiv@rem,f
  4367  0705  0821               	movf	___fldiv@a+1,w
  4368  0706  1C03               	skipc
  4369  0707  0F21               	incfsz	___fldiv@a+1,w
  4370  0708  02AE               	subwf	___fldiv@rem+1,f
  4371  0709  0822               	movf	___fldiv@a+2,w
  4372  070A  1C03               	skipc
  4373  070B  0F22               	incfsz	___fldiv@a+2,w
  4374  070C  02AF               	subwf	___fldiv@rem+2,f
  4375  070D  0823               	movf	___fldiv@a+3,w
  4376  070E  1C03               	skipc
  4377  070F  0F23               	incfsz	___fldiv@a+3,w
  4378  0710  02B0               	subwf	___fldiv@rem+3,f
  4379  0711                     i1l1956:
  4380  0711  3001               	movlw	1
  4381  0712  00A8               	movwf	??___fldiv
  4382  0713  0828               	movf	??___fldiv,w
  4383  0714  07B9               	addwf	___fldiv@aexp,f
  4384  0715                     i1l1958:
  4385  0715  301A               	movlw	26
  4386  0716  0239               	subwf	___fldiv@aexp,w
  4387  0717  1C03               	skipc
  4388  0718  2F1A               	goto	u232_21
  4389  0719  2F1B               	goto	u232_20
  4390  071A                     u232_21:
  4391  071A  2ECB               	goto	i1l1940
  4392  071B                     u232_20:
  4393  071B                     i1l1960:
  4394  071B  0830               	movf	___fldiv@rem+3,w
  4395  071C  042F               	iorwf	___fldiv@rem+2,w
  4396  071D  042E               	iorwf	___fldiv@rem+1,w
  4397  071E  042D               	iorwf	___fldiv@rem,w
  4398  071F  1903               	skipnz
  4399  0720  2F22               	goto	u233_21
  4400  0721  2F23               	goto	u233_20
  4401  0722                     u233_21:
  4402  0722  2F42               	goto	i1l1974
  4403  0723                     u233_20:
  4404  0723                     i1l1962:
  4405  0723  1434               	bsf	___fldiv@grs,0
  4406  0724  2F42               	goto	i1l1974
  4407  0725                     i1l1964:
  4408  0725  3001               	movlw	1
  4409  0726  00A8               	movwf	??___fldiv
  4410  0727                     u234_25:
  4411  0727  1003               	clrc
  4412  0728  0DA4               	rlf	___fldiv@b,f
  4413  0729  0DA5               	rlf	___fldiv@b+1,f
  4414  072A  0DA6               	rlf	___fldiv@b+2,f
  4415  072B  0DA7               	rlf	___fldiv@b+3,f
  4416  072C  0BA8               	decfsz	??___fldiv,f
  4417  072D  2F27               	goto	u234_25
  4418  072E                     i1l1966:
  4419  072E  1FB7               	btfss	___fldiv@grs+3,7
  4420  072F  2F31               	goto	u235_21
  4421  0730  2F32               	goto	u235_20
  4422  0731                     u235_21:
  4423  0731  2F33               	goto	i1l1970
  4424  0732                     u235_20:
  4425  0732                     i1l1968:
  4426  0732  1424               	bsf	___fldiv@b,0
  4427  0733                     i1l1970:
  4428  0733  3001               	movlw	1
  4429  0734  00A8               	movwf	??___fldiv
  4430  0735                     u236_25:
  4431  0735  1003               	clrc
  4432  0736  0DB4               	rlf	___fldiv@grs,f
  4433  0737  0DB5               	rlf	___fldiv@grs+1,f
  4434  0738  0DB6               	rlf	___fldiv@grs+2,f
  4435  0739  0DB7               	rlf	___fldiv@grs+3,f
  4436  073A  0BA8               	decfsz	??___fldiv,f
  4437  073B  2F35               	goto	u236_25
  4438  073C                     i1l1972:
  4439  073C  30FF               	movlw	255
  4440  073D  07B2               	addwf	___fldiv@new_exp,f
  4441  073E  1803               	skipnc
  4442  073F  0AB3               	incf	___fldiv@new_exp+1,f
  4443  0740  30FF               	movlw	255
  4444  0741  07B3               	addwf	___fldiv@new_exp+1,f
  4445  0742                     i1l1974:
  4446  0742  1FA6               	btfss	___fldiv@b+2,7
  4447  0743  2F45               	goto	u237_21
  4448  0744  2F46               	goto	u237_20
  4449  0745                     u237_21:
  4450  0745  2F25               	goto	i1l1964
  4451  0746                     u237_20:
  4452  0746                     i1l1976:
  4453  0746  01B9               	clrf	___fldiv@aexp
  4454  0747                     i1l1978:
  4455  0747  1FB7               	btfss	___fldiv@grs+3,7
  4456  0748  2F4A               	goto	u238_21
  4457  0749  2F4B               	goto	u238_20
  4458  074A                     u238_21:
  4459  074A  2F67               	goto	i1l1986
  4460  074B                     u238_20:
  4461  074B                     i1l1980:
  4462  074B  30FF               	movlw	255
  4463  074C  0534               	andwf	___fldiv@grs,w
  4464  074D  00A8               	movwf	??___fldiv
  4465  074E  30FF               	movlw	255
  4466  074F  0535               	andwf	___fldiv@grs+1,w
  4467  0750  00A9               	movwf	??___fldiv+1
  4468  0751  30FF               	movlw	255
  4469  0752  0536               	andwf	___fldiv@grs+2,w
  4470  0753  00AA               	movwf	??___fldiv+2
  4471  0754  307F               	movlw	127
  4472  0755  0537               	andwf	___fldiv@grs+3,w
  4473  0756  00AB               	movwf	??___fldiv+3
  4474  0757  082B               	movf	??___fldiv+3,w
  4475  0758  042A               	iorwf	??___fldiv+2,w
  4476  0759  0429               	iorwf	??___fldiv+1,w
  4477  075A  0428               	iorwf	??___fldiv,w
  4478  075B  1903               	skipnz
  4479  075C  2F5E               	goto	u239_21
  4480  075D  2F5F               	goto	u239_20
  4481  075E                     u239_21:
  4482  075E  2F62               	goto	i1l653
  4483  075F                     u239_20:
  4484  075F                     i1l1982:
  4485  075F  01B9               	clrf	___fldiv@aexp
  4486  0760  0AB9               	incf	___fldiv@aexp,f
  4487  0761  2F67               	goto	i1l1986
  4488  0762                     i1l653:
  4489  0762  1C24               	btfss	___fldiv@b,0
  4490  0763  2F65               	goto	u240_21
  4491  0764  2F66               	goto	u240_20
  4492  0765                     u240_21:
  4493  0765  2F67               	goto	i1l1986
  4494  0766                     u240_20:
  4495  0766  2F5F               	goto	i1l1982
  4496  0767                     i1l1986:
  4497  0767  0839               	movf	___fldiv@aexp,w
  4498  0768  1903               	btfsc	3,2
  4499  0769  2F6B               	goto	u241_21
  4500  076A  2F6C               	goto	u241_20
  4501  076B                     u241_21:
  4502  076B  2F9D               	goto	i1l1996
  4503  076C                     u241_20:
  4504  076C                     i1l1988:
  4505  076C  3001               	movlw	1
  4506  076D  07A4               	addwf	___fldiv@b,f
  4507  076E  3000               	movlw	0
  4508  076F  1803               	skipnc
  4509  0770  3001               	movlw	1
  4510  0771  07A5               	addwf	___fldiv@b+1,f
  4511  0772  3000               	movlw	0
  4512  0773  1803               	skipnc
  4513  0774  3001               	movlw	1
  4514  0775  07A6               	addwf	___fldiv@b+2,f
  4515  0776  3000               	movlw	0
  4516  0777  1803               	skipnc
  4517  0778  3001               	movlw	1
  4518  0779  07A7               	addwf	___fldiv@b+3,f
  4519  077A                     i1l1990:
  4520  077A  1C27               	btfss	___fldiv@b+3,0
  4521  077B  2F7D               	goto	u242_21
  4522  077C  2F7E               	goto	u242_20
  4523  077D                     u242_21:
  4524  077D  2F9D               	goto	i1l1996
  4525  077E                     u242_20:
  4526  077E                     i1l1992:
  4527  077E  0824               	movf	___fldiv@b,w
  4528  077F  00A8               	movwf	??___fldiv
  4529  0780  0825               	movf	___fldiv@b+1,w
  4530  0781  00A9               	movwf	??___fldiv+1
  4531  0782  0826               	movf	___fldiv@b+2,w
  4532  0783  00AA               	movwf	??___fldiv+2
  4533  0784  0827               	movf	___fldiv@b+3,w
  4534  0785  00AB               	movwf	??___fldiv+3
  4535  0786  3001               	movlw	1
  4536  0787  00AC               	movwf	??___fldiv+4
  4537  0788                     u243_25:
  4538  0788  0D2B               	rlf	??___fldiv+3,w
  4539  0789  0CAB               	rrf	??___fldiv+3,f
  4540  078A  0CAA               	rrf	??___fldiv+2,f
  4541  078B  0CA9               	rrf	??___fldiv+1,f
  4542  078C  0CA8               	rrf	??___fldiv,f
  4543  078D                     u243_20:
  4544  078D  0BAC               	decfsz	??___fldiv+4,f
  4545  078E  2F88               	goto	u243_25
  4546  078F  082B               	movf	??___fldiv+3,w
  4547  0790  00A7               	movwf	___fldiv@b+3
  4548  0791  082A               	movf	??___fldiv+2,w
  4549  0792  00A6               	movwf	___fldiv@b+2
  4550  0793  0829               	movf	??___fldiv+1,w
  4551  0794  00A5               	movwf	___fldiv@b+1
  4552  0795  0828               	movf	??___fldiv,w
  4553  0796  00A4               	movwf	___fldiv@b
  4554  0797                     i1l1994:
  4555  0797  3001               	movlw	1
  4556  0798  07B2               	addwf	___fldiv@new_exp,f
  4557  0799  1803               	skipnc
  4558  079A  0AB3               	incf	___fldiv@new_exp+1,f
  4559  079B  3000               	movlw	0
  4560  079C  07B3               	addwf	___fldiv@new_exp+1,f
  4561  079D                     i1l1996:
  4562  079D  0833               	movf	___fldiv@new_exp+1,w
  4563  079E  3A80               	xorlw	128
  4564  079F  00FF               	movwf	btemp+1
  4565  07A0  3080               	movlw	128
  4566  07A1  027F               	subwf	btemp+1,w
  4567  07A2  1D03               	skipz
  4568  07A3  2FA6               	goto	u244_25
  4569  07A4  30FF               	movlw	255
  4570  07A5  0232               	subwf	___fldiv@new_exp,w
  4571  07A6                     u244_25:
  4572  07A6  1C03               	skipc
  4573  07A7  2FA9               	goto	u244_21
  4574  07A8  2FAA               	goto	u244_20
  4575  07A9                     u244_21:
  4576  07A9  2FB8               	goto	i1l2000
  4577  07AA                     u244_20:
  4578  07AA                     i1l1998:
  4579  07AA  30FF               	movlw	255
  4580  07AB  1283               	bcf	3,5	;RP0=0, select bank0
  4581  07AC  1303               	bcf	3,6	;RP1=0, select bank0
  4582  07AD  00B2               	movwf	___fldiv@new_exp
  4583  07AE  3000               	movlw	0
  4584  07AF  00B3               	movwf	___fldiv@new_exp+1
  4585  07B0  3000               	movlw	0
  4586  07B1  00A7               	movwf	___fldiv@b+3
  4587  07B2  3000               	movlw	0
  4588  07B3  00A6               	movwf	___fldiv@b+2
  4589  07B4  3000               	movlw	0
  4590  07B5  00A5               	movwf	___fldiv@b+1
  4591  07B6  3000               	movlw	0
  4592  07B7  00A4               	movwf	___fldiv@b
  4593  07B8                     i1l2000:
  4594  07B8  1283               	bcf	3,5	;RP0=0, select bank0
  4595  07B9  1303               	bcf	3,6	;RP1=0, select bank0
  4596  07BA  0833               	movf	___fldiv@new_exp+1,w
  4597  07BB  3A80               	xorlw	128
  4598  07BC  00FF               	movwf	btemp+1
  4599  07BD  3080               	movlw	128
  4600  07BE  027F               	subwf	btemp+1,w
  4601  07BF  1D03               	skipz
  4602  07C0  2FC3               	goto	u245_25
  4603  07C1  3001               	movlw	1
  4604  07C2  0232               	subwf	___fldiv@new_exp,w
  4605  07C3                     u245_25:
  4606  07C3  1803               	skipnc
  4607  07C4  2FC6               	goto	u245_21
  4608  07C5  2FC7               	goto	u245_20
  4609  07C6                     u245_21:
  4610  07C6  2FD4               	goto	i1l659
  4611  07C7                     u245_20:
  4612  07C7                     i1l2002:
  4613  07C7  1283               	bcf	3,5	;RP0=0, select bank0
  4614  07C8  1303               	bcf	3,6	;RP1=0, select bank0
  4615  07C9  01B2               	clrf	___fldiv@new_exp
  4616  07CA  01B3               	clrf	___fldiv@new_exp+1
  4617  07CB                     i1l2004:
  4618  07CB  3000               	movlw	0
  4619  07CC  00A7               	movwf	___fldiv@b+3
  4620  07CD  3000               	movlw	0
  4621  07CE  00A6               	movwf	___fldiv@b+2
  4622  07CF  3000               	movlw	0
  4623  07D0  00A5               	movwf	___fldiv@b+1
  4624  07D1  3000               	movlw	0
  4625  07D2  00A4               	movwf	___fldiv@b
  4626  07D3                     i1l2006:
  4627  07D3  01B1               	clrf	___fldiv@sign
  4628  07D4                     i1l659:
  4629  07D4  1283               	bcf	3,5	;RP0=0, select bank0
  4630  07D5  1303               	bcf	3,6	;RP1=0, select bank0
  4631  07D6  0832               	movf	___fldiv@new_exp,w
  4632  07D7  00A8               	movwf	??___fldiv
  4633  07D8  0828               	movf	??___fldiv,w
  4634  07D9  00B8               	movwf	___fldiv@bexp
  4635  07DA                     i1l2008:
  4636  07DA  1C38               	btfss	___fldiv@bexp,0
  4637  07DB  2FDD               	goto	u246_21
  4638  07DC  2FDE               	goto	u246_20
  4639  07DD                     u246_21:
  4640  07DD  2FE0               	goto	i1l2012
  4641  07DE                     u246_20:
  4642  07DE                     i1l2010:
  4643  07DE  17A6               	bsf	___fldiv@b+2,7
  4644  07DF  2FE4               	goto	i1l661
  4645  07E0                     i1l2012:
  4646  07E0  307F               	movlw	127
  4647  07E1  00A8               	movwf	??___fldiv
  4648  07E2  0828               	movf	??___fldiv,w
  4649  07E3  05A6               	andwf	___fldiv@b+2,f
  4650  07E4                     i1l661:
  4651  07E4  0838               	movf	___fldiv@bexp,w
  4652  07E5  00A8               	movwf	??___fldiv
  4653  07E6  1003               	clrc
  4654  07E7  0C28               	rrf	??___fldiv,w
  4655  07E8  00A9               	movwf	??___fldiv+1
  4656  07E9  0829               	movf	??___fldiv+1,w
  4657  07EA  00A7               	movwf	___fldiv@b+3
  4658  07EB  0831               	movf	___fldiv@sign,w
  4659  07EC  00A8               	movwf	??___fldiv
  4660  07ED  0828               	movf	??___fldiv,w
  4661  07EE  04A7               	iorwf	___fldiv@b+3,f
  4662  07EF  2E88               	goto	i1l1920
  4663  07F0                     i1l639:
  4664  07F0  0008               	return
  4665  07F1                     __end_of___fldiv:
  4666                           
  4667                           	psect	text11
  4668  038C                     __ptext11:	
  4669 ;; *************** function ___fladd *****************
  4670 ;; Defined at:
  4671 ;;		line 10 in file "C:\Program Files\Microchip\xc8\v2.35\pic\sources\c90\common\sprcadd.c"
  4672 ;; Parameters:    Size  Location     Type
  4673 ;;  b               4   52[BANK0 ] unsigned char 
  4674 ;;  a               4   56[BANK0 ] unsigned char 
  4675 ;; Auto vars:     Size  Location     Type
  4676 ;;  grs             1   71[BANK0 ] unsigned char 
  4677 ;;  bexp            1   70[BANK0 ] unsigned char 
  4678 ;;  aexp            1   69[BANK0 ] unsigned char 
  4679 ;;  signs           1   68[BANK0 ] unsigned char 
  4680 ;; Return value:  Size  Location     Type
  4681 ;;                  4   52[BANK0 ] unsigned char 
  4682 ;; Registers used:
  4683 ;;		wreg, status,2, status,0, btemp+1
  4684 ;; Tracked objects:
  4685 ;;		On entry : 0/0
  4686 ;;		On exit  : 0/0
  4687 ;;		Unchanged: 0/0
  4688 ;; Data sizes:     COMMON   BANK0   BANK1   BANK3   BANK2
  4689 ;;      Params:         0       8       0       0       0
  4690 ;;      Locals:         0       4       0       0       0
  4691 ;;      Temps:          0       8       0       0       0
  4692 ;;      Totals:         0      20       0       0       0
  4693 ;;Total ram usage:       20 bytes
  4694 ;; Hardware stack levels used: 1
  4695 ;; This function calls:
  4696 ;;		Nothing
  4697 ;; This function is called by:
  4698 ;;		_map
  4699 ;; This function uses a non-reentrant model
  4700 ;;
  4701                           
  4702  038C                     ___fladd:	
  4703                           ;psect for function ___fladd
  4704                           
  4705  038C                     i1l1682:	
  4706                           ;incstack = 0
  4707                           ; Regs used in ___fladd: [wreg+status,2+status,0+btemp+1]
  4708                           
  4709  038C  1283               	bcf	3,5	;RP0=0, select bank0
  4710  038D  1303               	bcf	3,6	;RP1=0, select bank0
  4711  038E  0857               	movf	___fladd@b+3,w
  4712  038F  3980               	andlw	128
  4713  0390  00DC               	movwf	??___fladd
  4714  0391  085C               	movf	??___fladd,w
  4715  0392  00E4               	movwf	___fladd@signs
  4716  0393                     i1l1684:
  4717  0393  0857               	movf	___fladd@b+3,w
  4718  0394  00DC               	movwf	??___fladd
  4719  0395  075C               	addwf	??___fladd,w
  4720  0396  00DD               	movwf	??___fladd+1
  4721  0397  085D               	movf	??___fladd+1,w
  4722  0398  00E6               	movwf	___fladd@bexp
  4723  0399                     i1l1686:
  4724  0399  1FD6               	btfss	___fladd@b+2,7
  4725  039A  2B9C               	goto	u172_21
  4726  039B  2B9D               	goto	u172_20
  4727  039C                     u172_21:
  4728  039C  2B9E               	goto	i1l1690
  4729  039D                     u172_20:
  4730  039D                     i1l1688:
  4731  039D  1466               	bsf	___fladd@bexp,0
  4732  039E                     i1l1690:
  4733  039E  0866               	movf	___fladd@bexp,w
  4734  039F  1903               	btfsc	3,2
  4735  03A0  2BA2               	goto	u173_21
  4736  03A1  2BA3               	goto	u173_20
  4737  03A2                     u173_21:
  4738  03A2  2BB3               	goto	i1l1700
  4739  03A3                     u173_20:
  4740  03A3                     i1l1692:
  4741  03A3  0A66               	incf	___fladd@bexp,w
  4742  03A4  1D03               	btfss	3,2
  4743  03A5  2BA7               	goto	u174_21
  4744  03A6  2BA8               	goto	u174_20
  4745  03A7                     u174_21:
  4746  03A7  2BB0               	goto	i1l1696
  4747  03A8                     u174_20:
  4748  03A8                     i1l1694:
  4749  03A8  3000               	movlw	0
  4750  03A9  00D7               	movwf	___fladd@b+3
  4751  03AA  3000               	movlw	0
  4752  03AB  00D6               	movwf	___fladd@b+2
  4753  03AC  3000               	movlw	0
  4754  03AD  00D5               	movwf	___fladd@b+1
  4755  03AE  3000               	movlw	0
  4756  03AF  00D4               	movwf	___fladd@b
  4757  03B0                     i1l1696:
  4758  03B0  17D6               	bsf	___fladd@b+2,7
  4759  03B1                     i1l1698:
  4760  03B1  01D7               	clrf	___fladd@b+3
  4761  03B2  2BBB               	goto	i1l1702
  4762  03B3                     i1l1700:
  4763  03B3  3000               	movlw	0
  4764  03B4  00D7               	movwf	___fladd@b+3
  4765  03B5  3000               	movlw	0
  4766  03B6  00D6               	movwf	___fladd@b+2
  4767  03B7  3000               	movlw	0
  4768  03B8  00D5               	movwf	___fladd@b+1
  4769  03B9  3000               	movlw	0
  4770  03BA  00D4               	movwf	___fladd@b
  4771  03BB                     i1l1702:
  4772  03BB  085B               	movf	___fladd@a+3,w
  4773  03BC  3980               	andlw	128
  4774  03BD  00DC               	movwf	??___fladd
  4775  03BE  085C               	movf	??___fladd,w
  4776  03BF  00E5               	movwf	___fladd@aexp
  4777  03C0                     i1l1704:
  4778  03C0  0865               	movf	___fladd@aexp,w
  4779  03C1  0664               	xorwf	___fladd@signs,w
  4780  03C2  1903               	skipnz
  4781  03C3  2BC5               	goto	u175_21
  4782  03C4  2BC6               	goto	u175_20
  4783  03C5                     u175_21:
  4784  03C5  2BC7               	goto	i1l1708
  4785  03C6                     u175_20:
  4786  03C6                     i1l1706:
  4787  03C6  1764               	bsf	___fladd@signs,6
  4788  03C7                     i1l1708:
  4789  03C7  085B               	movf	___fladd@a+3,w
  4790  03C8  00DC               	movwf	??___fladd
  4791  03C9  075C               	addwf	??___fladd,w
  4792  03CA  00DD               	movwf	??___fladd+1
  4793  03CB  085D               	movf	??___fladd+1,w
  4794  03CC  00E5               	movwf	___fladd@aexp
  4795  03CD                     i1l1710:
  4796  03CD  1FDA               	btfss	___fladd@a+2,7
  4797  03CE  2BD0               	goto	u176_21
  4798  03CF  2BD1               	goto	u176_20
  4799  03D0                     u176_21:
  4800  03D0  2BD2               	goto	i1l1714
  4801  03D1                     u176_20:
  4802  03D1                     i1l1712:
  4803  03D1  1465               	bsf	___fladd@aexp,0
  4804  03D2                     i1l1714:
  4805  03D2  0865               	movf	___fladd@aexp,w
  4806  03D3  1903               	btfsc	3,2
  4807  03D4  2BD6               	goto	u177_21
  4808  03D5  2BD7               	goto	u177_20
  4809  03D6                     u177_21:
  4810  03D6  2BE7               	goto	i1l1724
  4811  03D7                     u177_20:
  4812  03D7                     i1l1716:
  4813  03D7  0A65               	incf	___fladd@aexp,w
  4814  03D8  1D03               	btfss	3,2
  4815  03D9  2BDB               	goto	u178_21
  4816  03DA  2BDC               	goto	u178_20
  4817  03DB                     u178_21:
  4818  03DB  2BE4               	goto	i1l1720
  4819  03DC                     u178_20:
  4820  03DC                     i1l1718:
  4821  03DC  3000               	movlw	0
  4822  03DD  00DB               	movwf	___fladd@a+3
  4823  03DE  3000               	movlw	0
  4824  03DF  00DA               	movwf	___fladd@a+2
  4825  03E0  3000               	movlw	0
  4826  03E1  00D9               	movwf	___fladd@a+1
  4827  03E2  3000               	movlw	0
  4828  03E3  00D8               	movwf	___fladd@a
  4829  03E4                     i1l1720:
  4830  03E4  17DA               	bsf	___fladd@a+2,7
  4831  03E5                     i1l1722:
  4832  03E5  01DB               	clrf	___fladd@a+3
  4833  03E6  2BEF               	goto	i1l581
  4834  03E7                     i1l1724:
  4835  03E7  3000               	movlw	0
  4836  03E8  00DB               	movwf	___fladd@a+3
  4837  03E9  3000               	movlw	0
  4838  03EA  00DA               	movwf	___fladd@a+2
  4839  03EB  3000               	movlw	0
  4840  03EC  00D9               	movwf	___fladd@a+1
  4841  03ED  3000               	movlw	0
  4842  03EE  00D8               	movwf	___fladd@a
  4843  03EF                     i1l581:
  4844  03EF  0866               	movf	___fladd@bexp,w
  4845  03F0  0265               	subwf	___fladd@aexp,w
  4846  03F1  1803               	skipnc
  4847  03F2  2BF4               	goto	u179_21
  4848  03F3  2BF5               	goto	u179_20
  4849  03F4                     u179_21:
  4850  03F4  2C39               	goto	i1l1760
  4851  03F5                     u179_20:
  4852  03F5                     i1l1726:
  4853  03F5  1F64               	btfss	___fladd@signs,6
  4854  03F6  2BF8               	goto	u180_21
  4855  03F7  2BF9               	goto	u180_20
  4856  03F8                     u180_21:
  4857  03F8  2BFD               	goto	i1l1730
  4858  03F9                     u180_20:
  4859  03F9                     i1l1728:
  4860  03F9  3080               	movlw	128
  4861  03FA  00DC               	movwf	??___fladd
  4862  03FB  085C               	movf	??___fladd,w
  4863  03FC  06E4               	xorwf	___fladd@signs,f
  4864  03FD                     i1l1730:
  4865  03FD  0866               	movf	___fladd@bexp,w
  4866  03FE  00DC               	movwf	??___fladd
  4867  03FF  085C               	movf	??___fladd,w
  4868  0400  00E7               	movwf	___fladd@grs
  4869  0401                     i1l1732:
  4870  0401  0865               	movf	___fladd@aexp,w
  4871  0402  00DC               	movwf	??___fladd
  4872  0403  085C               	movf	??___fladd,w
  4873  0404  00E6               	movwf	___fladd@bexp
  4874  0405                     i1l1734:
  4875  0405  0867               	movf	___fladd@grs,w
  4876  0406  00DC               	movwf	??___fladd
  4877  0407  085C               	movf	??___fladd,w
  4878  0408  00E5               	movwf	___fladd@aexp
  4879  0409                     i1l1736:
  4880  0409  0854               	movf	___fladd@b,w
  4881  040A  00DC               	movwf	??___fladd
  4882  040B  085C               	movf	??___fladd,w
  4883  040C  00E7               	movwf	___fladd@grs
  4884  040D                     i1l1738:
  4885  040D  0858               	movf	___fladd@a,w
  4886  040E  00DC               	movwf	??___fladd
  4887  040F  085C               	movf	??___fladd,w
  4888  0410  00D4               	movwf	___fladd@b
  4889  0411                     i1l1740:
  4890  0411  0867               	movf	___fladd@grs,w
  4891  0412  00DC               	movwf	??___fladd
  4892  0413  085C               	movf	??___fladd,w
  4893  0414  00D8               	movwf	___fladd@a
  4894  0415                     i1l1742:
  4895  0415  0855               	movf	___fladd@b+1,w
  4896  0416  00DC               	movwf	??___fladd
  4897  0417  085C               	movf	??___fladd,w
  4898  0418  00E7               	movwf	___fladd@grs
  4899  0419                     i1l1744:
  4900  0419  0859               	movf	___fladd@a+1,w
  4901  041A  00DC               	movwf	??___fladd
  4902  041B  085C               	movf	??___fladd,w
  4903  041C  00D5               	movwf	___fladd@b+1
  4904  041D                     i1l1746:
  4905  041D  0867               	movf	___fladd@grs,w
  4906  041E  00DC               	movwf	??___fladd
  4907  041F  085C               	movf	??___fladd,w
  4908  0420  00D9               	movwf	___fladd@a+1
  4909  0421                     i1l1748:
  4910  0421  0856               	movf	___fladd@b+2,w
  4911  0422  00DC               	movwf	??___fladd
  4912  0423  085C               	movf	??___fladd,w
  4913  0424  00E7               	movwf	___fladd@grs
  4914  0425                     i1l1750:
  4915  0425  085A               	movf	___fladd@a+2,w
  4916  0426  00DC               	movwf	??___fladd
  4917  0427  085C               	movf	??___fladd,w
  4918  0428  00D6               	movwf	___fladd@b+2
  4919  0429                     i1l1752:
  4920  0429  0867               	movf	___fladd@grs,w
  4921  042A  00DC               	movwf	??___fladd
  4922  042B  085C               	movf	??___fladd,w
  4923  042C  00DA               	movwf	___fladd@a+2
  4924  042D                     i1l1754:
  4925  042D  0857               	movf	___fladd@b+3,w
  4926  042E  00DC               	movwf	??___fladd
  4927  042F  085C               	movf	??___fladd,w
  4928  0430  00E7               	movwf	___fladd@grs
  4929  0431                     i1l1756:
  4930  0431  085B               	movf	___fladd@a+3,w
  4931  0432  00DC               	movwf	??___fladd
  4932  0433  085C               	movf	??___fladd,w
  4933  0434  00D7               	movwf	___fladd@b+3
  4934  0435                     i1l1758:
  4935  0435  0867               	movf	___fladd@grs,w
  4936  0436  00DC               	movwf	??___fladd
  4937  0437  085C               	movf	??___fladd,w
  4938  0438  00DB               	movwf	___fladd@a+3
  4939  0439                     i1l1760:
  4940  0439  01E7               	clrf	___fladd@grs
  4941  043A                     i1l1762:
  4942  043A  0865               	movf	___fladd@aexp,w
  4943  043B  00DC               	movwf	??___fladd
  4944  043C  01DD               	clrf	??___fladd+1
  4945  043D  085D               	movf	??___fladd+1,w
  4946  043E  00DF               	movwf	??___fladd+3
  4947  043F  0866               	movf	___fladd@bexp,w
  4948  0440  025C               	subwf	??___fladd,w
  4949  0441  00DE               	movwf	??___fladd+2
  4950  0442  1C03               	skipc
  4951  0443  03DF               	decf	??___fladd+3,f
  4952  0444  085F               	movf	??___fladd+3,w
  4953  0445  3A80               	xorlw	128
  4954  0446  00FF               	movwf	btemp+1
  4955  0447  3080               	movlw	128
  4956  0448  027F               	subwf	btemp+1,w
  4957  0449  1D03               	skipz
  4958  044A  2C4D               	goto	u181_25
  4959  044B  301A               	movlw	26
  4960  044C  025E               	subwf	??___fladd+2,w
  4961  044D                     u181_25:
  4962  044D  1C03               	skipc
  4963  044E  2C50               	goto	u181_21
  4964  044F  2C51               	goto	u181_20
  4965  0450                     u181_21:
  4966  0450  2C8E               	goto	i1l1778
  4967  0451                     u181_20:
  4968  0451                     i1l1764:
  4969  0451  1283               	bcf	3,5	;RP0=0, select bank0
  4970  0452  1303               	bcf	3,6	;RP1=0, select bank0
  4971  0453  0857               	movf	___fladd@b+3,w
  4972  0454  0456               	iorwf	___fladd@b+2,w
  4973  0455  0455               	iorwf	___fladd@b+1,w
  4974  0456  0454               	iorwf	___fladd@b,w
  4975  0457  1D03               	skipz
  4976  0458  2C5A               	goto	u182_21
  4977  0459  2C5C               	goto	u182_20
  4978  045A                     u182_21:
  4979  045A  3001               	movlw	1
  4980  045B  2C5D               	goto	u183_20
  4981  045C                     u182_20:
  4982  045C  3000               	movlw	0
  4983  045D                     u183_20:
  4984  045D  00DC               	movwf	??___fladd
  4985  045E  085C               	movf	??___fladd,w
  4986  045F  00E7               	movwf	___fladd@grs
  4987  0460  3000               	movlw	0
  4988  0461  00D7               	movwf	___fladd@b+3
  4989  0462  3000               	movlw	0
  4990  0463  00D6               	movwf	___fladd@b+2
  4991  0464  3000               	movlw	0
  4992  0465  00D5               	movwf	___fladd@b+1
  4993  0466  3000               	movlw	0
  4994  0467  00D4               	movwf	___fladd@b
  4995  0468  0865               	movf	___fladd@aexp,w
  4996  0469  00DC               	movwf	??___fladd
  4997  046A  085C               	movf	??___fladd,w
  4998  046B  00E6               	movwf	___fladd@bexp
  4999  046C  2C96               	goto	i1l585
  5000  046D                     i1l587:
  5001  046D  1C67               	btfss	___fladd@grs,0
  5002  046E  2C70               	goto	u184_21
  5003  046F  2C71               	goto	u184_20
  5004  0470                     u184_21:
  5005  0470  2C7A               	goto	i1l1768
  5006  0471                     u184_20:
  5007  0471                     i1l1766:
  5008  0471  0867               	movf	___fladd@grs,w
  5009  0472  00DC               	movwf	??___fladd
  5010  0473  1003               	clrc
  5011  0474  0C5C               	rrf	??___fladd,w
  5012  0475  3801               	iorlw	1
  5013  0476  00DD               	movwf	??___fladd+1
  5014  0477  085D               	movf	??___fladd+1,w
  5015  0478  00E7               	movwf	___fladd@grs
  5016  0479  2C7C               	goto	i1l1770
  5017  047A                     i1l1768:
  5018  047A  1003               	clrc
  5019  047B  0CE7               	rrf	___fladd@grs,f
  5020  047C                     i1l1770:
  5021  047C  1C54               	btfss	___fladd@b,0
  5022  047D  2C7F               	goto	u185_21
  5023  047E  2C80               	goto	u185_20
  5024  047F                     u185_21:
  5025  047F  2C81               	goto	i1l1774
  5026  0480                     u185_20:
  5027  0480                     i1l1772:
  5028  0480  17E7               	bsf	___fladd@grs,7
  5029  0481                     i1l1774:
  5030  0481  3001               	movlw	1
  5031  0482  00DC               	movwf	??___fladd
  5032  0483                     u186_25:
  5033  0483  0D57               	rlf	___fladd@b+3,w
  5034  0484  0CD7               	rrf	___fladd@b+3,f
  5035  0485  0CD6               	rrf	___fladd@b+2,f
  5036  0486  0CD5               	rrf	___fladd@b+1,f
  5037  0487  0CD4               	rrf	___fladd@b,f
  5038  0488  0BDC               	decfsz	??___fladd& (0+127),f
  5039  0489  2C83               	goto	u186_25
  5040  048A                     i1l1776:
  5041  048A  3001               	movlw	1
  5042  048B  00DC               	movwf	??___fladd
  5043  048C  085C               	movf	??___fladd,w
  5044  048D  07E6               	addwf	___fladd@bexp,f
  5045  048E                     i1l1778:
  5046  048E  1283               	bcf	3,5	;RP0=0, select bank0
  5047  048F  1303               	bcf	3,6	;RP1=0, select bank0
  5048  0490  0865               	movf	___fladd@aexp,w
  5049  0491  0266               	subwf	___fladd@bexp,w
  5050  0492  1C03               	skipc
  5051  0493  2C95               	goto	u187_21
  5052  0494  2C96               	goto	u187_20
  5053  0495                     u187_21:
  5054  0495  2C6D               	goto	i1l587
  5055  0496                     u187_20:
  5056  0496                     i1l585:
  5057  0496  1B64               	btfsc	___fladd@signs,6
  5058  0497  2C99               	goto	u188_21
  5059  0498  2C9A               	goto	u188_20
  5060  0499                     u188_21:
  5061  0499  2CE5               	goto	i1l1804
  5062  049A                     u188_20:
  5063  049A                     i1l1780:
  5064  049A  0866               	movf	___fladd@bexp,w
  5065  049B  1D03               	btfss	3,2
  5066  049C  2C9E               	goto	u189_21
  5067  049D  2C9F               	goto	u189_20
  5068  049E                     u189_21:
  5069  049E  2CA8               	goto	i1l1786
  5070  049F                     u189_20:
  5071  049F                     i1l1782:
  5072  049F  3000               	movlw	0
  5073  04A0  00D7               	movwf	?___fladd+3
  5074  04A1  3000               	movlw	0
  5075  04A2  00D6               	movwf	?___fladd+2
  5076  04A3  3000               	movlw	0
  5077  04A4  00D5               	movwf	?___fladd+1
  5078  04A5  3000               	movlw	0
  5079  04A6  00D4               	movwf	?___fladd
  5080  04A7  2E13               	goto	i1l594
  5081  04A8                     i1l1786:
  5082  04A8  0858               	movf	___fladd@a,w
  5083  04A9  07D4               	addwf	___fladd@b,f
  5084  04AA  0859               	movf	___fladd@a+1,w
  5085  04AB  1103               	clrz
  5086  04AC  1803               	skipnc
  5087  04AD  3E01               	addlw	1
  5088  04AE  1903               	skipnz
  5089  04AF  2CB1               	goto	u190_21
  5090  04B0  07D5               	addwf	___fladd@b+1,f
  5091  04B1                     u190_21:
  5092  04B1  085A               	movf	___fladd@a+2,w
  5093  04B2  1103               	clrz
  5094  04B3  1803               	skipnc
  5095  04B4  3E01               	addlw	1
  5096  04B5  1903               	skipnz
  5097  04B6  2CB8               	goto	u190_22
  5098  04B7  07D6               	addwf	___fladd@b+2,f
  5099  04B8                     u190_22:
  5100  04B8  085B               	movf	___fladd@a+3,w
  5101  04B9  1103               	clrz
  5102  04BA  1803               	skipnc
  5103  04BB  3E01               	addlw	1
  5104  04BC  1903               	skipnz
  5105  04BD  2CBF               	goto	u190_23
  5106  04BE  07D7               	addwf	___fladd@b+3,f
  5107  04BF                     u190_23:
  5108  04BF                     i1l1788:
  5109  04BF  1C57               	btfss	___fladd@b+3,0
  5110  04C0  2CC2               	goto	u191_21
  5111  04C1  2CC3               	goto	u191_20
  5112  04C2                     u191_21:
  5113  04C2  2D99               	goto	i1l1838
  5114  04C3                     u191_20:
  5115  04C3                     i1l1790:
  5116  04C3  1C67               	btfss	___fladd@grs,0
  5117  04C4  2CC6               	goto	u192_21
  5118  04C5  2CC7               	goto	u192_20
  5119  04C6                     u192_21:
  5120  04C6  2CD0               	goto	i1l1794
  5121  04C7                     u192_20:
  5122  04C7                     i1l1792:
  5123  04C7  0867               	movf	___fladd@grs,w
  5124  04C8  00DC               	movwf	??___fladd
  5125  04C9  1003               	clrc
  5126  04CA  0C5C               	rrf	??___fladd,w
  5127  04CB  3801               	iorlw	1
  5128  04CC  00DD               	movwf	??___fladd+1
  5129  04CD  085D               	movf	??___fladd+1,w
  5130  04CE  00E7               	movwf	___fladd@grs
  5131  04CF  2CD2               	goto	i1l1796
  5132  04D0                     i1l1794:
  5133  04D0  1003               	clrc
  5134  04D1  0CE7               	rrf	___fladd@grs,f
  5135  04D2                     i1l1796:
  5136  04D2  1C54               	btfss	___fladd@b,0
  5137  04D3  2CD5               	goto	u193_21
  5138  04D4  2CD6               	goto	u193_20
  5139  04D5                     u193_21:
  5140  04D5  2CD7               	goto	i1l1800
  5141  04D6                     u193_20:
  5142  04D6                     i1l1798:
  5143  04D6  17E7               	bsf	___fladd@grs,7
  5144  04D7                     i1l1800:
  5145  04D7  3001               	movlw	1
  5146  04D8  00DC               	movwf	??___fladd
  5147  04D9                     u194_25:
  5148  04D9  0D57               	rlf	___fladd@b+3,w
  5149  04DA  0CD7               	rrf	___fladd@b+3,f
  5150  04DB  0CD6               	rrf	___fladd@b+2,f
  5151  04DC  0CD5               	rrf	___fladd@b+1,f
  5152  04DD  0CD4               	rrf	___fladd@b,f
  5153  04DE  0BDC               	decfsz	??___fladd& (0+127),f
  5154  04DF  2CD9               	goto	u194_25
  5155  04E0                     i1l1802:
  5156  04E0  3001               	movlw	1
  5157  04E1  00DC               	movwf	??___fladd
  5158  04E2  085C               	movf	??___fladd,w
  5159  04E3  07E6               	addwf	___fladd@bexp,f
  5160  04E4  2D99               	goto	i1l1838
  5161  04E5                     i1l1804:
  5162  04E5  0857               	movf	___fladd@b+3,w
  5163  04E6  3A80               	xorlw	128
  5164  04E7  00FF               	movwf	btemp+1
  5165  04E8  085B               	movf	___fladd@a+3,w
  5166  04E9  3A80               	xorlw	128
  5167  04EA  027F               	subwf	btemp+1,w
  5168  04EB  1D03               	skipz
  5169  04EC  2CF7               	goto	u195_23
  5170  04ED  085A               	movf	___fladd@a+2,w
  5171  04EE  0256               	subwf	___fladd@b+2,w
  5172  04EF  1D03               	skipz
  5173  04F0  2CF7               	goto	u195_23
  5174  04F1  0859               	movf	___fladd@a+1,w
  5175  04F2  0255               	subwf	___fladd@b+1,w
  5176  04F3  1D03               	skipz
  5177  04F4  2CF7               	goto	u195_23
  5178  04F5  0858               	movf	___fladd@a,w
  5179  04F6  0254               	subwf	___fladd@b,w
  5180  04F7                     u195_23:
  5181  04F7  1803               	skipnc
  5182  04F8  2CFA               	goto	u195_21
  5183  04F9  2CFB               	goto	u195_20
  5184  04FA                     u195_21:
  5185  04FA  2D53               	goto	i1l1814
  5186  04FB                     u195_20:
  5187  04FB                     i1l1806:
  5188  04FB  30FF               	movlw	255
  5189  04FC  00DC               	movwf	??___fladd
  5190  04FD  30FF               	movlw	255
  5191  04FE  00DD               	movwf	??___fladd+1
  5192  04FF  30FF               	movlw	255
  5193  0500  00DE               	movwf	??___fladd+2
  5194  0501  30FF               	movlw	255
  5195  0502  00DF               	movwf	??___fladd+3
  5196  0503  0858               	movf	___fladd@a,w
  5197  0504  00E0               	movwf	??___fladd+4
  5198  0505  0859               	movf	___fladd@a+1,w
  5199  0506  00E1               	movwf	??___fladd+5
  5200  0507  085A               	movf	___fladd@a+2,w
  5201  0508  00E2               	movwf	??___fladd+6
  5202  0509  085B               	movf	___fladd@a+3,w
  5203  050A  00E3               	movwf	??___fladd+7
  5204  050B  0854               	movf	___fladd@b,w
  5205  050C  02E0               	subwf	??___fladd+4,f
  5206  050D  0855               	movf	___fladd@b+1,w
  5207  050E  1C03               	skipc
  5208  050F  0F55               	incfsz	___fladd@b+1,w
  5209  0510  2D12               	goto	u196_21
  5210  0511  2D13               	goto	u196_22
  5211  0512                     u196_21:
  5212  0512  02E1               	subwf	??___fladd+5,f
  5213  0513                     u196_22:
  5214  0513  0856               	movf	___fladd@b+2,w
  5215  0514  1C03               	skipc
  5216  0515  0F56               	incfsz	___fladd@b+2,w
  5217  0516  2D18               	goto	u196_23
  5218  0517  2D19               	goto	u196_24
  5219  0518                     u196_23:
  5220  0518  02E2               	subwf	??___fladd+6,f
  5221  0519                     u196_24:
  5222  0519  0857               	movf	___fladd@b+3,w
  5223  051A  1C03               	skipc
  5224  051B  0F57               	incfsz	___fladd@b+3,w
  5225  051C  2D1E               	goto	u196_25
  5226  051D  2D1F               	goto	u196_26
  5227  051E                     u196_25:
  5228  051E  02E3               	subwf	??___fladd+7,f
  5229  051F                     u196_26:
  5230  051F  0860               	movf	??___fladd+4,w
  5231  0520  07DC               	addwf	??___fladd,f
  5232  0521  0861               	movf	??___fladd+5,w
  5233  0522  1803               	skipnc
  5234  0523  0F61               	incfsz	??___fladd+5,w
  5235  0524  2D26               	goto	u197_20
  5236  0525  2D27               	goto	u197_21
  5237  0526                     u197_20:
  5238  0526  07DD               	addwf	??___fladd+1,f
  5239  0527                     u197_21:
  5240  0527  0862               	movf	??___fladd+6,w
  5241  0528  1803               	skipnc
  5242  0529  0F62               	incfsz	??___fladd+6,w
  5243  052A  2D2C               	goto	u197_22
  5244  052B  2D2D               	goto	u197_23
  5245  052C                     u197_22:
  5246  052C  07DE               	addwf	??___fladd+2,f
  5247  052D                     u197_23:
  5248  052D  0863               	movf	??___fladd+7,w
  5249  052E  1803               	skipnc
  5250  052F  0A63               	incf	??___fladd+7,w
  5251  0530  07DF               	addwf	??___fladd+3,f
  5252  0531  085F               	movf	??___fladd+3,w
  5253  0532  00D7               	movwf	___fladd@b+3
  5254  0533  085E               	movf	??___fladd+2,w
  5255  0534  00D6               	movwf	___fladd@b+2
  5256  0535  085D               	movf	??___fladd+1,w
  5257  0536  00D5               	movwf	___fladd@b+1
  5258  0537  085C               	movf	??___fladd,w
  5259  0538  00D4               	movwf	___fladd@b
  5260  0539                     i1l1808:
  5261  0539  3080               	movlw	128
  5262  053A  00DC               	movwf	??___fladd
  5263  053B  085C               	movf	??___fladd,w
  5264  053C  06E4               	xorwf	___fladd@signs,f
  5265  053D  09E7               	comf	___fladd@grs,f
  5266  053E  0AE7               	incf	___fladd@grs,f
  5267  053F                     i1l1810:
  5268  053F  0867               	movf	___fladd@grs,w
  5269  0540  1D03               	btfss	3,2
  5270  0541  2D43               	goto	u198_21
  5271  0542  2D44               	goto	u198_20
  5272  0543                     u198_21:
  5273  0543  2D61               	goto	i1l602
  5274  0544                     u198_20:
  5275  0544                     i1l1812:
  5276  0544  3001               	movlw	1
  5277  0545  07D4               	addwf	___fladd@b,f
  5278  0546  3000               	movlw	0
  5279  0547  1803               	skipnc
  5280  0548  3001               	movlw	1
  5281  0549  07D5               	addwf	___fladd@b+1,f
  5282  054A  3000               	movlw	0
  5283  054B  1803               	skipnc
  5284  054C  3001               	movlw	1
  5285  054D  07D6               	addwf	___fladd@b+2,f
  5286  054E  3000               	movlw	0
  5287  054F  1803               	skipnc
  5288  0550  3001               	movlw	1
  5289  0551  07D7               	addwf	___fladd@b+3,f
  5290  0552  2D61               	goto	i1l602
  5291  0553                     i1l1814:
  5292  0553  0858               	movf	___fladd@a,w
  5293  0554  02D4               	subwf	___fladd@b,f
  5294  0555  0859               	movf	___fladd@a+1,w
  5295  0556  1C03               	skipc
  5296  0557  0F59               	incfsz	___fladd@a+1,w
  5297  0558  02D5               	subwf	___fladd@b+1,f
  5298  0559  085A               	movf	___fladd@a+2,w
  5299  055A  1C03               	skipc
  5300  055B  0F5A               	incfsz	___fladd@a+2,w
  5301  055C  02D6               	subwf	___fladd@b+2,f
  5302  055D  085B               	movf	___fladd@a+3,w
  5303  055E  1C03               	skipc
  5304  055F  0F5B               	incfsz	___fladd@a+3,w
  5305  0560  02D7               	subwf	___fladd@b+3,f
  5306  0561                     i1l602:
  5307  0561  0857               	movf	___fladd@b+3,w
  5308  0562  0456               	iorwf	___fladd@b+2,w
  5309  0563  0455               	iorwf	___fladd@b+1,w
  5310  0564  0454               	iorwf	___fladd@b,w
  5311  0565  1D03               	skipz
  5312  0566  2D68               	goto	u199_21
  5313  0567  2D69               	goto	u199_20
  5314  0568                     u199_21:
  5315  0568  2D95               	goto	i1l1836
  5316  0569                     u199_20:
  5317  0569                     i1l1816:
  5318  0569  0867               	movf	___fladd@grs,w
  5319  056A  1D03               	btfss	3,2
  5320  056B  2D6D               	goto	u200_21
  5321  056C  2D6E               	goto	u200_20
  5322  056D                     u200_21:
  5323  056D  2D95               	goto	i1l1836
  5324  056E                     u200_20:
  5325  056E                     i1l1818:
  5326  056E  3000               	movlw	0
  5327  056F  00D7               	movwf	?___fladd+3
  5328  0570  3000               	movlw	0
  5329  0571  00D6               	movwf	?___fladd+2
  5330  0572  3000               	movlw	0
  5331  0573  00D5               	movwf	?___fladd+1
  5332  0574  3000               	movlw	0
  5333  0575  00D4               	movwf	?___fladd
  5334  0576  2E13               	goto	i1l594
  5335  0577                     i1l1822:
  5336  0577  3001               	movlw	1
  5337  0578  00DC               	movwf	??___fladd
  5338  0579                     u201_25:
  5339  0579  1003               	clrc
  5340  057A  0DD4               	rlf	___fladd@b,f
  5341  057B  0DD5               	rlf	___fladd@b+1,f
  5342  057C  0DD6               	rlf	___fladd@b+2,f
  5343  057D  0DD7               	rlf	___fladd@b+3,f
  5344  057E  0BDC               	decfsz	??___fladd,f
  5345  057F  2D79               	goto	u201_25
  5346  0580                     i1l1824:
  5347  0580  1FE7               	btfss	___fladd@grs,7
  5348  0581  2D83               	goto	u202_21
  5349  0582  2D84               	goto	u202_20
  5350  0583                     u202_21:
  5351  0583  2D85               	goto	i1l606
  5352  0584                     u202_20:
  5353  0584                     i1l1826:
  5354  0584  1454               	bsf	___fladd@b,0
  5355  0585                     i1l606:
  5356  0585  1C67               	btfss	___fladd@grs,0
  5357  0586  2D88               	goto	u203_21
  5358  0587  2D89               	goto	u203_20
  5359  0588                     u203_21:
  5360  0588  2D8C               	goto	i1l1830
  5361  0589                     u203_20:
  5362  0589                     i1l1828:
  5363  0589  1403               	setc
  5364  058A  0DE7               	rlf	___fladd@grs,f
  5365  058B  2D8E               	goto	i1l1832
  5366  058C                     i1l1830:
  5367  058C  1003               	clrc
  5368  058D  0DE7               	rlf	___fladd@grs,f
  5369  058E                     i1l1832:
  5370  058E  0866               	movf	___fladd@bexp,w
  5371  058F  1903               	btfsc	3,2
  5372  0590  2D92               	goto	u204_21
  5373  0591  2D93               	goto	u204_20
  5374  0592                     u204_21:
  5375  0592  2D95               	goto	i1l1836
  5376  0593                     u204_20:
  5377  0593                     i1l1834:
  5378  0593  3001               	movlw	1
  5379  0594  02E6               	subwf	___fladd@bexp,f
  5380  0595                     i1l1836:
  5381  0595  1FD6               	btfss	___fladd@b+2,7
  5382  0596  2D98               	goto	u205_21
  5383  0597  2D99               	goto	u205_20
  5384  0598                     u205_21:
  5385  0598  2D77               	goto	i1l1822
  5386  0599                     u205_20:
  5387  0599                     i1l1838:
  5388  0599  01E5               	clrf	___fladd@aexp
  5389  059A                     i1l1840:
  5390  059A  1FE7               	btfss	___fladd@grs,7
  5391  059B  2D9D               	goto	u206_21
  5392  059C  2D9E               	goto	u206_20
  5393  059D                     u206_21:
  5394  059D  2DAC               	goto	i1l1848
  5395  059E                     u206_20:
  5396  059E                     i1l1842:
  5397  059E  0867               	movf	___fladd@grs,w
  5398  059F  397F               	andlw	127
  5399  05A0  1903               	btfsc	3,2
  5400  05A1  2DA3               	goto	u207_21
  5401  05A2  2DA4               	goto	u207_20
  5402  05A3                     u207_21:
  5403  05A3  2DA7               	goto	i1l612
  5404  05A4                     u207_20:
  5405  05A4                     i1l1844:
  5406  05A4  01E5               	clrf	___fladd@aexp
  5407  05A5  0AE5               	incf	___fladd@aexp,f
  5408  05A6  2DAC               	goto	i1l1848
  5409  05A7                     i1l612:
  5410  05A7  1C54               	btfss	___fladd@b,0
  5411  05A8  2DAA               	goto	u208_21
  5412  05A9  2DAB               	goto	u208_20
  5413  05AA                     u208_21:
  5414  05AA  2DAC               	goto	i1l1848
  5415  05AB                     u208_20:
  5416  05AB  2DA4               	goto	i1l1844
  5417  05AC                     i1l1848:
  5418  05AC  0865               	movf	___fladd@aexp,w
  5419  05AD  1903               	btfsc	3,2
  5420  05AE  2DB0               	goto	u209_21
  5421  05AF  2DB1               	goto	u209_20
  5422  05B0                     u209_21:
  5423  05B0  2DE5               	goto	i1l615
  5424  05B1                     u209_20:
  5425  05B1                     i1l1850:
  5426  05B1  3001               	movlw	1
  5427  05B2  07D4               	addwf	___fladd@b,f
  5428  05B3  3000               	movlw	0
  5429  05B4  1803               	skipnc
  5430  05B5  3001               	movlw	1
  5431  05B6  07D5               	addwf	___fladd@b+1,f
  5432  05B7  3000               	movlw	0
  5433  05B8  1803               	skipnc
  5434  05B9  3001               	movlw	1
  5435  05BA  07D6               	addwf	___fladd@b+2,f
  5436  05BB  3000               	movlw	0
  5437  05BC  1803               	skipnc
  5438  05BD  3001               	movlw	1
  5439  05BE  07D7               	addwf	___fladd@b+3,f
  5440  05BF                     i1l1852:
  5441  05BF  1C57               	btfss	___fladd@b+3,0
  5442  05C0  2DC2               	goto	u210_21
  5443  05C1  2DC3               	goto	u210_20
  5444  05C2                     u210_21:
  5445  05C2  2DE5               	goto	i1l615
  5446  05C3                     u210_20:
  5447  05C3                     i1l1854:
  5448  05C3  0854               	movf	___fladd@b,w
  5449  05C4  00DC               	movwf	??___fladd
  5450  05C5  0855               	movf	___fladd@b+1,w
  5451  05C6  00DD               	movwf	??___fladd+1
  5452  05C7  0856               	movf	___fladd@b+2,w
  5453  05C8  00DE               	movwf	??___fladd+2
  5454  05C9  0857               	movf	___fladd@b+3,w
  5455  05CA  00DF               	movwf	??___fladd+3
  5456  05CB  3001               	movlw	1
  5457  05CC  00E0               	movwf	??___fladd+4
  5458  05CD                     u211_25:
  5459  05CD  0D5F               	rlf	??___fladd+3,w
  5460  05CE  0CDF               	rrf	??___fladd+3,f
  5461  05CF  0CDE               	rrf	??___fladd+2,f
  5462  05D0  0CDD               	rrf	??___fladd+1,f
  5463  05D1  0CDC               	rrf	??___fladd,f
  5464  05D2                     u211_20:
  5465  05D2  0BE0               	decfsz	??___fladd+4,f
  5466  05D3  2DCD               	goto	u211_25
  5467  05D4  085F               	movf	??___fladd+3,w
  5468  05D5  00D7               	movwf	___fladd@b+3
  5469  05D6  085E               	movf	??___fladd+2,w
  5470  05D7  00D6               	movwf	___fladd@b+2
  5471  05D8  085D               	movf	??___fladd+1,w
  5472  05D9  00D5               	movwf	___fladd@b+1
  5473  05DA  085C               	movf	??___fladd,w
  5474  05DB  00D4               	movwf	___fladd@b
  5475  05DC  0A66               	incf	___fladd@bexp,w
  5476  05DD  1903               	btfsc	3,2
  5477  05DE  2DE0               	goto	u212_21
  5478  05DF  2DE1               	goto	u212_20
  5479  05E0                     u212_21:
  5480  05E0  2DE5               	goto	i1l615
  5481  05E1                     u212_20:
  5482  05E1                     i1l1856:
  5483  05E1  3001               	movlw	1
  5484  05E2  00DC               	movwf	??___fladd
  5485  05E3  085C               	movf	??___fladd,w
  5486  05E4  07E6               	addwf	___fladd@bexp,f
  5487  05E5                     i1l615:
  5488  05E5  0A66               	incf	___fladd@bexp,w
  5489  05E6  1903               	btfsc	3,2
  5490  05E7  2DE9               	goto	u213_21
  5491  05E8  2DEA               	goto	u213_20
  5492  05E9                     u213_21:
  5493  05E9  2DEF               	goto	i1l1860
  5494  05EA                     u213_20:
  5495  05EA                     i1l1858:
  5496  05EA  0866               	movf	___fladd@bexp,w
  5497  05EB  1D03               	btfss	3,2
  5498  05EC  2DEE               	goto	u214_21
  5499  05ED  2DEF               	goto	u214_20
  5500  05EE                     u214_21:
  5501  05EE  2DFD               	goto	i1l1866
  5502  05EF                     u214_20:
  5503  05EF                     i1l1860:
  5504  05EF  3000               	movlw	0
  5505  05F0  00D7               	movwf	___fladd@b+3
  5506  05F1  3000               	movlw	0
  5507  05F2  00D6               	movwf	___fladd@b+2
  5508  05F3  3000               	movlw	0
  5509  05F4  00D5               	movwf	___fladd@b+1
  5510  05F5  3000               	movlw	0
  5511  05F6  00D4               	movwf	___fladd@b
  5512  05F7                     i1l1862:
  5513  05F7  0866               	movf	___fladd@bexp,w
  5514  05F8  1D03               	btfss	3,2
  5515  05F9  2DFB               	goto	u215_21
  5516  05FA  2DFC               	goto	u215_20
  5517  05FB                     u215_21:
  5518  05FB  2DFD               	goto	i1l1866
  5519  05FC                     u215_20:
  5520  05FC                     i1l1864:
  5521  05FC  01E4               	clrf	___fladd@signs
  5522  05FD                     i1l1866:
  5523  05FD  1C66               	btfss	___fladd@bexp,0
  5524  05FE  2E00               	goto	u216_21
  5525  05FF  2E01               	goto	u216_20
  5526  0600                     u216_21:
  5527  0600  2E03               	goto	i1l1870
  5528  0601                     u216_20:
  5529  0601                     i1l1868:
  5530  0601  17D6               	bsf	___fladd@b+2,7
  5531  0602  2E07               	goto	i1l623
  5532  0603                     i1l1870:
  5533  0603  307F               	movlw	127
  5534  0604  00DC               	movwf	??___fladd
  5535  0605  085C               	movf	??___fladd,w
  5536  0606  05D6               	andwf	___fladd@b+2,f
  5537  0607                     i1l623:
  5538  0607  0866               	movf	___fladd@bexp,w
  5539  0608  00DC               	movwf	??___fladd
  5540  0609  1003               	clrc
  5541  060A  0C5C               	rrf	??___fladd,w
  5542  060B  00DD               	movwf	??___fladd+1
  5543  060C  085D               	movf	??___fladd+1,w
  5544  060D  00D7               	movwf	___fladd@b+3
  5545  060E                     i1l1872:
  5546  060E  1FE4               	btfss	___fladd@signs,7
  5547  060F  2E11               	goto	u217_21
  5548  0610  2E12               	goto	u217_20
  5549  0611                     u217_21:
  5550  0611  2E13               	goto	i1l624
  5551  0612                     u217_20:
  5552  0612                     i1l1874:
  5553  0612  17D7               	bsf	___fladd@b+3,7
  5554  0613                     i1l624:
  5555  0613                     i1l594:
  5556  0613  0008               	return
  5557  0614                     __end_of___fladd:
  5558  007E                     btemp	set	126	;btemp
  5559  007E                     wtemp0	set	126
  5560                           
  5561                           	psect	idloc
  5562                           
  5563                           ;Config register IDLOC0 @ 0x2000
  5564                           ;	unspecified, using default values
  5565  2000                     	org	8192
  5566  2000  3FFF               	dw	16383
  5567                           
  5568                           ;Config register IDLOC1 @ 0x2001
  5569                           ;	unspecified, using default values
  5570  2001                     	org	8193
  5571  2001  3FFF               	dw	16383
  5572                           
  5573                           ;Config register IDLOC2 @ 0x2002
  5574                           ;	unspecified, using default values
  5575  2002                     	org	8194
  5576  2002  3FFF               	dw	16383
  5577                           
  5578                           ;Config register IDLOC3 @ 0x2003
  5579                           ;	unspecified, using default values
  5580  2003                     	org	8195
  5581  2003  3FFF               	dw	16383
  5582                           
  5583                           	psect	config
  5584                           
  5585                           ;Config register CONFIG1 @ 0x2007
  5586                           ;	Oscillator Selection bits
  5587                           ;	FOSC = INTRC_NOCLKOUT, INTOSCIO oscillator: I/O function on RA6/OSC2/CLKOUT pin, I/O f
      +                          unction on RA7/OSC1/CLKIN
  5588                           ;	Watchdog Timer Enable bit
  5589                           ;	WDTE = OFF, WDT disabled and can be enabled by SWDTEN bit of the WDTCON register
  5590                           ;	Power-up Timer Enable bit
  5591                           ;	PWRTE = OFF, PWRT disabled
  5592                           ;	RE3/MCLR pin function select bit
  5593                           ;	MCLRE = OFF, RE3/MCLR pin function is digital input, MCLR internally tied to VDD
  5594                           ;	Code Protection bit
  5595                           ;	CP = OFF, Program memory code protection is disabled
  5596                           ;	Data Code Protection bit
  5597                           ;	CPD = OFF, Data memory code protection is disabled
  5598                           ;	Brown Out Reset Selection bits
  5599                           ;	BOREN = OFF, BOR disabled
  5600                           ;	Internal External Switchover bit
  5601                           ;	IESO = OFF, Internal/External Switchover mode is disabled
  5602                           ;	Fail-Safe Clock Monitor Enabled bit
  5603                           ;	FCMEN = OFF, Fail-Safe Clock Monitor is disabled
  5604                           ;	Low Voltage Programming Enable bit
  5605                           ;	LVP = OFF, RB3 pin has digital I/O, HV on MCLR must be used for programming
  5606                           ;	In-Circuit Debugger Mode bit
  5607                           ;	DEBUG = 0x1, unprogrammed default
  5608  2007                     	org	8199
  5609  2007  20D4               	dw	8404
  5610                           
  5611                           ;Config register CONFIG2 @ 0x2008
  5612                           ;	Brown-out Reset Selection bit
  5613                           ;	BOR4V = BOR40V, Brown-out Reset set to 4.0V
  5614                           ;	Flash Program Memory Self Write Enable bits
  5615                           ;	WRT = OFF, Write protection off
  5616  2008                     	org	8200
  5617  2008  3FFF               	dw	16383

Data Sizes:
    Strings     0
    Constant    0
    Data        1
    BSS         21
    Persistent  0
    Stack       0

Auto Spaces:
    Space          Size  Autos    Used
    COMMON           14     14      14
    BANK0            80     79      80
    BANK1            80     20      41
    BANK3            96      0       0
    BANK2            96      0       0

Pointer List with Targets:

    None.

Critical Paths under _main in COMMON

    None.

Critical Paths under _isr in COMMON

    _map->___xxtofl
    ___fltol->___xxtofl
    ___flmul->___xxtofl
    ___fldiv->___xxtofl
    ___fladd->___xxtofl

Critical Paths under _main in BANK0

    None.

Critical Paths under _isr in BANK0

    _isr->_map
    _map->___fltol
    ___fltol->___fladd
    ___flmul->___fldiv
    ___fladd->___flmul

Critical Paths under _main in BANK1

    _main->_setup

Critical Paths under _isr in BANK1

    _isr->_map
    _map->___fltol

Critical Paths under _main in BANK3

    None.

Critical Paths under _isr in BANK3

    None.

Critical Paths under _main in BANK2

    None.

Critical Paths under _isr in BANK2

    None.

Call Graph Tables:

 ---------------------------------------------------------------------------------
 (Depth) Function   	        Calls       Base Space   Used Autos Params    Refs
 ---------------------------------------------------------------------------------
 (0) _main                                                 2     2      0       0
                                             18 BANK1      2     2      0
                              _setup
 ---------------------------------------------------------------------------------
 (1) _setup                                                1     1      0       0
                                             17 BANK1      1     1      0
 ---------------------------------------------------------------------------------
 Estimated maximum stack depth 1
 ---------------------------------------------------------------------------------
 (Depth) Function   	        Calls       Base Space   Used Autos Params    Refs
 ---------------------------------------------------------------------------------
 (2) _isr                                                  6     6      0    8319
                                             11 BANK1      6     6      0
                                _map
                        _read_EEPROM
                       _write_EEPROM
 ---------------------------------------------------------------------------------
 (3) _write_EEPROM                                         2     1      1     652
                                              0 COMMON     2     1      1
 ---------------------------------------------------------------------------------
 (3) _read_EEPROM                                          1     1      0      22
                                              0 COMMON     1     1      0
 ---------------------------------------------------------------------------------
 (3) _map                                                  7     1      6    7645
                                             78 BANK0      1     1      0
                                              5 BANK1      6     0      6
                            ___fladd
                            ___fldiv
                            ___flmul
                            ___fltol
                           ___xxtofl
 ---------------------------------------------------------------------------------
 (4) ___xxtofl                                            14    10      4     626
                                              0 COMMON    14    10      4
 ---------------------------------------------------------------------------------
 (4) ___fltol                                             11     7      4     305
                                             72 BANK0      6     2      4
                                              0 BANK1      5     5      0
                            ___fladd (ARG)
                            ___fldiv (ARG)
                            ___flmul (ARG)
                           ___xxtofl (ARG)
 ---------------------------------------------------------------------------------
 (4) ___flmul                                             26    18      8    2417
                                             26 BANK0     26    18      8
                          __Umul8_16
                            ___fldiv (ARG)
                           ___xxtofl (ARG)
 ---------------------------------------------------------------------------------
 (5) __Umul8_16                                            9     7      2     799
                                              0 COMMON     9     7      2
 ---------------------------------------------------------------------------------
 (4) ___fldiv                                             26    18      8    1273
                                              0 BANK0     26    18      8
                           ___xxtofl (ARG)
 ---------------------------------------------------------------------------------
 (4) ___fladd                                             20    12      8    2262
                                             52 BANK0     20    12      8
                            ___fldiv (ARG)
                            ___flmul (ARG)
                           ___xxtofl (ARG)
 ---------------------------------------------------------------------------------
 Estimated maximum stack depth 5
 ---------------------------------------------------------------------------------

 Call Graph Graphs:

 _main (ROOT)
   _setup

 _isr (ROOT)
   _map
     ___fladd
       ___fldiv (ARG)
         ___xxtofl (ARG)
       ___flmul (ARG)
         __Umul8_16
         ___fldiv (ARG)
         ___xxtofl (ARG)
       ___xxtofl (ARG)
     ___fldiv
     ___flmul
     ___fltol
       ___fladd (ARG)
       ___fldiv (ARG)
       ___flmul (ARG)
       ___xxtofl (ARG)
     ___xxtofl
   _read_EEPROM
   _write_EEPROM

 Address spaces:
Name               Size   Autos  Total    Cost      Usage
BANK3               60      0       0       9        0.0%
BITBANK3            60      0       0       8        0.0%
SFR3                 0      0       0       4        0.0%
BITSFR3              0      0       0       4        0.0%
BANK2               60      0       0      11        0.0%
BITBANK2            60      0       0      10        0.0%
SFR2                 0      0       0       5        0.0%
BITSFR2              0      0       0       5        0.0%
BANK1               50     14      29       7       51.2%
BITBANK1            50      0       0       6        0.0%
SFR1                 0      0       0       2        0.0%
BITSFR1              0      0       0       2        0.0%
BANK0               50     4F      50       5      100.0%
BITBANK0            50      0       0       4        0.0%
SFR0                 0      0       0       1        0.0%
BITSFR0              0      0       0       1        0.0%
COMMON               E      E       E       1      100.0%
BITCOMMON            E      0       0       0        0.0%
CODE                 0      0       0       0        0.0%
DATA                 0      0      87      12        0.0%
ABS                  0      0      87       3        0.0%
NULL                 0      0       0       0        0.0%
STACK                0      0       0       2        0.0%
EEDATA             100      0       0       0        0.0%


Microchip Technology PIC Macro Assembler V2.35 build 20211206165544 
Symbol Table                                                                                   Thu Jun 02 21:57:15 2022

           ___fldiv@aexp 0039             ___fldiv@bexp 0038             ___fldiv@sign 0031  
            _SSPSTATbits 0094                       fsr 0004      __Umul8_16@word_mpld 0076  
                    l180 0D0C                      l190 0B9E                      l182 0D13  
                    l183 0D1A                      l175 0D01                      l192 0BA2  
                    l193 0BD5                      _RB0 0030                      _RB1 0031  
                    _RB2 0032                      _RB3 0033                      _RB4 0034  
                    _PR2 0092                      _map 0BD6                      _isr 0DF5  
                    indf 0000             ___flmul@aexp 004C             ___flmul@bexp 004D  
           ___flmul@sign 0047             ___flmul@temp 0052             ___flmul@prod 004E  
           ___fltol@exp1 006D                     l2300 0BC1                     l2310 0BCD  
                   l2302 0BC5                     l2230 0B33                     l2312 0BD0  
                   l2304 0BC6                     l2240 0B4C                     l2232 0B37  
                   l2400 0C9F                     l2314 0BD1                     l2306 0BC9  
                   l2250 0B5A                     l2242 0B52                     l2234 0B38  
                   l2410 0CB5                     l2402 0CA3                     l2316 0BD2  
                   l2308 0BCC                     l2260 0B65                     l2252 0B5B  
                   l2244 0B53                     l2236 0B45                     l2420 0CE8  
                   l2412 0CC0                     l2404 0CA7                     l2270 0B75  
                   l2262 0B68                     l2254 0B5C                     l2246 0B55  
                   l2238 0B49                     l2430 0D21                     l2422 0CEF  
                   l2414 0CC7                     l2406 0CAB                     l2280 0B88  
                   l2272 0B7C                     l2264 0B69                     l2256 0B5F  
                   l2248 0B58                     l2424 0CFC                     l2416 0CD4  
                   l2432 0D23                     l2408 0CAF                     l2290 0B98  
                   l2282 0B8C                     l2274 0B7F                     l2266 0B6F  
                   l2258 0B63                     l2418 0CDB                     l2426 0D01  
                   l2292 0B99                     l2284 0B90                     l2276 0B81  
                   l2268 0B72                     l2428 0D08                     l2294 0B9A  
                   l2286 0B92                     l2278 0B86                     l2390 0C88  
                   l2296 0B9B                     l2288 0B96                     l2392 0C8D  
                   l2298 0B9D                     l2458 0D2D                     l2394 0C93  
                   l2396 0C97                     l2398 0C9B                     ?_map 00B9  
                   ?_isr 0070                     _CCPR 00A2                     u3120 0CB5  
                   u3121 0CB4                     u3130 0CC0                     u3131 0CBF  
                   u3140 0CD4                     u3141 0CD3                     u3150 0CE8  
                   u3151 0CE7                     u3160 0CFC                     u3161 0CFB  
                   u3177 0D05                     u3187 0B79                     u2980 0BA2  
                   u2981 0BA1                     _POTS 00A4                     _cont 00AE  
                   _main 0C88                     map@x 006E                     btemp 007E  
                   start 0010          ___fldiv@new_exp 0032             ?_read_EEPROM 0070  
                  ??_map 007E                    ??_isr 00BF            ___fltol@sign1 006C  
        __end_of___fladd 0614                    ?_main 0070          __end_of___fldiv 07F1  
                  _EEADR 010D                    _EEDAT 010C          __end_of___flmul 038C  
        __end_of___fltol 0B33                    _ANSEL 0188                    i1l202 0A6F  
                  i1l165 0FF5                    i1l602 0561                    i1l612 05A7  
                  i1l196 0C87                    i1l606 0585                    i1l623 0607  
                  i1l615 05E5                    i1l199 07FD                    i1l624 0613  
                  i1l481 0B1D                    i1l721 0D5D                    i1l474 0B32  
                  i1l723 0DF4                    i1l484 0B32                    i1l581 03EF  
                  i1l661 07E4                    i1l653 0762                    i1l637 0670  
                  i1l734 0DBE                    i1l639 07F0                    i1l735 0DCA  
                  i1l727 0DA2                    i1l585 0496                    i1l594 0613  
                  i1l587 046D                    i1l659 07D4                    i1l683 02F7  
                  i1l677 038B                    i1l696 0A84                    i1l689 037F  
                  i1l698 0A96                    _SPBRG 0099                    _PORTA 0005  
                  _PORTB 0006                    _PORTC 0007                    _PORTD 0008  
                  _POT_1 00B2                    _POT_2 00B1                    _POT_3 00B0  
                  _POT_4 00AF                    _TRISA 0085                    _TRISB 0086  
                  _TRISC 0087                    _TRISD 0088                    map@x0 00B9  
                  map@x1 00BA                    map@y0 00BB                    map@y1 00BD  
                  _setup 0B33                    pclath 000A                    status 0003  
                  wtemp0 007E          __initialization 0013             __end_of_main 0D3B  
                 ??_main 00C6             _write_EEPROM 0A5B                   _ADRESH 001E  
                 _CCPR1L 0015                   _CCPR2L 001B                   _EECON2 018D  
                 _CCPR_2 00A0                   ?_setup 0070                   _ANSELH 0189  
                 i1l2000 07B8                   i1l2010 07DE                   i1l2002 07C7  
                 i1l2012 07E0                   i1l2004 07CB                   i1l2100 02A3  
                 i1l2020 0032                   i1l2006 07D3                   i1l2110 02C8  
                 i1l2102 02AC                   i1l2030 0047                   i1l2022 0038  
                 i1l2008 07DA                   i1l2120 02E0                   i1l2112 02D1  
                 i1l2104 02BA                   i1l2040 0064                   i1l2032 004F  
                 i1l2024 003C                   i1l2130 030F                   i1l2122 02F4  
                 i1l2106 02C3                   i1l2114 02D7                   i1l2050 007B  
                 i1l2042 0068                   i1l2034 0051                   i1l2026 003D  
                 i1l2018 002B                   i1l2202 0BD9                   i1l2210 0A65  
                 i1l2140 034A                   i1l2132 0313                   i1l2116 02DB  
                 i1l2108 02C7                   i1l2052 007D                   i1l2044 0069  
                 i1l2036 0059                   i1l2028 0042                   i1l2220 0A6E  
                 i1l2212 0A66                   i1l2150 0377                   i1l2142 0359  
                 i1l2134 032C                   i1l2126 02FC                   i1l2118 02DC  
                 i1l2070 00EE                   i1l2062 0098                   i1l2054 0085  
                 i1l2046 006E                   i1l2038 005E                   i1l2222 07F2  
                 i1l2214 0A6B                   i1l2206 0A5C                   u200_20 056E  
                 i1l2152 0378                   i1l2144 0363                   i1l2128 0301  
                 i1l2136 0332                   i1l2080 016B                   i1l2072 011A  
                 i1l2064 00A8                   i1l2056 008A                   i1l2048 0073  
                 i1l2160 0D41                   i1l2224 07F6                   i1l2216 0A6C  
                 i1l2208 0A62                   i1l2320 0DFB                   u200_21 056D  
                 i1l2154 0383                   i1l2146 0365                   i1l2138 033F  
                 i1l2090 01EB                   i1l2082 0188                   i1l2074 0136  
                 i1l2066 00B5                   i1l2058 008F                   i1l2170 0D6E  
                 i1l2162 0D45                   i1l2226 07F9                   i1l2218 0A6D  
                 i1l2322 0E06                   i1l2330 0E2A                   i1l1700 03B3  
                 i1l2148 0373                   i1l2092 0218                   i1l2084 0198  
                 i1l2076 0152                   i1l2068 00D2                   i1l2180 0D99  
                 i1l2172 0D73                   i1l2164 0D55                   i1l2332 0E37  
                 i1l2340 0E5B                   i1l2324 0E0E                   i1l1710 03CD  
                 i1l1702 03BB                   i1l2094 0228                   i1l2086 01B5  
                 i1l2078 015B                   i1l2190 0DCC                   i1l2182 0DA9  
                 i1l2174 0D80                   i1l2166 0D65                   i1l2158 0D3C  
                 i1l2342 0E68                   i1l2350 0EA8                   i1l2334 0E3F  
                 i1l2326 0E1F                   i1l2318 0DF5                   i1l1800 04D7  
                 i1l1720 03E4                   i1l1712 03D1                   i1l1704 03C0  
                 i1l1640 0A8D                   i1l1632 0A71                   i1l2096 0255  
                 i1l2088 01CE                   i1l2192 0DE2                   i1l2184 0DB4  
                 i1l2176 0D87                   i1l2360 0EF4                   i1l2352 0EB5  
                 i1l2344 0E70                   i1l2336 0E50                   i1l2328 0E25  
                 i1l1810 053F                   i1l1802 04E0                   i1l1730 03FD  
                 i1l1722 03E5                   i1l1714 03D2                   i1l1706 03C6  
                 i1l1642 0A92                   i1l1634 0A73                   i1l2098 027B  
                 i1l2194 0DE7                   i1l2186 0DB8                   i1l2178 0D8B  
                 i1l2370 0F40                   i1l2354 0EBD                   i1l2346 0E88  
                 i1l2338 0E56                   i1l2362 0F06                   i1l1812 0544  
                 i1l1804 04E5                   i1l1740 0411                   i1l1732 0401  
                 i1l1716 03D7                   i1l1724 03E7                   i1l1708 03C7  
                 i1l1900 064E                   i1l1636 0A7A                   i1l1660 0AE1  
                 i1l1652 0AB1                   i1l2196 0DEB                   i1l2188 0DC2  
                 i1l2380 0FB5                   i1l2372 0F46                   i1l2356 0ED5  
                 i1l2348 0E96                   i1l2364 0F08                   u201_25 0579  
                 i1l1830 058C                   i1l1822 0577                   i1l1806 04FB  
                 i1l1814 0553                   i1l1750 0425                   i1l1742 0415  
                 i1l1734 0405                   i1l1726 03F5                   i1l1718 03DC  
                 i1l1910 0665                   i1l1902 0652                   i1l1638 0A7E  
                 i1l1662 0AE5                   i1l1670 0B03                   i1l1654 0AD6  
                 i1l1646 0A97                   i1l2198 0DEC                   i1l2382 0FE9  
                 i1l2374 0F7A                   i1l2366 0F0C                   i1l2358 0EE3  
                 u210_20 05C3                   i1l1840 059A                   i1l1832 058E  
                 u202_20 0584                   i1l1824 0580                   i1l1816 0569  
                 i1l1808 0539                   i1l1752 0429                   i1l1744 0419  
                 i1l1736 0409                   i1l1728 03F9                   i1l1760 0439  
                 i1l1920 0688                   i1l1912 0666                   i1l1904 0653  
                 i1l1680 0B27                   i1l1656 0AD7                   i1l1648 0AA8  
                 i1l2384 0FEE                   i1l2376 0F7F                   i1l2368 0F10  
                 u210_21 05C2                   u202_21 0583                   i1l1850 05B1  
                 i1l1842 059E                   i1l1834 0593                   i1l1826 0584  
                 i1l1818 056E                   i1l1770 047C                   i1l1762 043A  
                 i1l1754 042D                   i1l1746 041D                   i1l1738 040D  
                 i1l1690 039E                   i1l1682 038C                   i1l1930 069F  
                 i1l1906 0658                   i1l1914 0668                   i1l1658 0ADF  
                 i1l2386 0FF4                   i1l2378 0FAF                   i1l1860 05EF  
                 i1l1852 05BF                   i1l1844 05A4                   i1l1828 0589  
                 i1l1836 0595                   i1l1780 049A                   i1l1772 0480  
                 i1l1764 0451                   i1l1756 0431                   i1l1748 0421  
                 i1l1692 03A3                   i1l1684 0393                   i1l1940 06CB  
                 i1l1932 06B1                   i1l1916 0678                   i1l1924 0691  
                 i1l1908 065D                   i1l1676 0B0A                   i1l1668 0AED  
                 i1l1870 0603                   i1l1862 05F7                   i1l1854 05C3  
                 i1l1790 04C3                   i1l1838 0599                   i1l1782 049F  
                 i1l1774 0481                   i1l1766 0471                   i1l1758 0435  
                 i1l1694 03A8                   i1l1686 0399                   i1l1942 06D0  
                 i1l1950 06F0                   i1l1934 06B9                   i1l1926 0696  
                 i1l1918 0684                   i1l1678 0B22                   i1l1872 060E  
                 i1l1864 05FC                   i1l1856 05E1                   u211_20 05D2  
                 i1l1848 05AC                   u203_20 0589                   i1l1792 04C7  
                 i1l1776 048A                   i1l1768 047A                   i1l1696 03B0  
                 i1l1688 039D                   i1l1960 071B                   i1l1952 0702  
                 i1l1944 06E2                   i1l1936 06C1                   i1l1880 0621  
                 u203_21 0588                   i1l1874 0612                   i1l1866 05FD  
                 i1l1858 05EA                   i1l1794 04D0                   i1l1786 04A8  
                 i1l1778 048E                   i1l1698 03B1                   i1l1970 0733  
                 i1l1962 0723                   i1l1954 0703                   i1l1946 06E6  
                 i1l1938 06C9                   i1l1890 0638                   i1l1882 0625  
                 i1l1868 0601                   i1l1796 04D2                   i1l1788 04BF  
                 i1l1980 074B                   i1l1972 073C                   i1l1964 0725  
                 i1l1956 0711                   i1l1948 06E7                   i1l1892 0639  
                 i1l1884 0626                   i1l1876 0614                   u211_25 05CD  
                 i1l1798 04D6                   i1l1990 077A                   i1l1982 075F  
                 i1l1966 072E                   i1l1974 0742                   i1l1958 0715  
                 i1l1886 062B                   i1l1894 063B                   i1l1878 061B  
                 u212_20 05E1                   u204_20 0593                   i1l1992 077E  
                 i1l1976 0746                   i1l1968 0732                   i1l1896 0643  
                 i1l1888 0630                   u220_20 0630                   u300_20 0E06  
                 u212_21 05E0                   u204_21 0592                   u220_21 062F  
                 u300_21 0E05                   i1l1994 0797                   i1l1986 0767  
                 i1l1978 0747                   i1l1898 0648                   i1l1988 076C  
                 i1l1996 079D                   i1l1998 07AA                   u213_20 05EA  
                 u205_20 0599                   u221_20 0652                   u301_20 0E25  
                 u213_21 05E9                   u205_21 0598                   u221_21 0651  
                 u301_21 0E24                   u214_20 05EF                   u206_20 059E  
                 u222_20 0658                   u310_20 0FB5                   u302_20 0E37  
                 u214_21 05EE                   u206_21 059D                   u222_21 0657  
                 u310_21 0FB4                   u302_21 0E36                   u230_25 06E9  
                 u215_20 05FC                   u207_20 05A4                   u231_20 0702  
                 u223_20 065D                   u311_20 0FEE                   u303_20 0E56  
                 u215_21 05FB                   u207_21 05A3                   u231_21 0701  
                 u223_21 065C                   u311_21 0FED                   u303_21 0E55  
                 u231_25 06FE                   u216_20 0601                   u208_20 05AB  
                 u240_20 0766                   u232_20 071B                   u224_20 0678  
                 u304_20 0E68                   u216_21 0600                   u208_21 05AA  
                 u240_21 0765                   u232_21 071A                   u224_21 0677  
                 u304_21 0E67                   u160_25 0A85                   u320_27 0E4A  
                 u217_20 0612                   u209_20 05B1                   u241_20 076C  
                 u233_20 0723                   u225_20 0696                   u161_20 0A92  
                 u305_20 0EB5                   u217_21 0611                   u209_21 05B0  
                 u241_21 076B                   u233_21 0722                   u225_21 0695  
                 u161_21 0A91                   u305_21 0EB4                   u242_20 077E  
                 u226_20 06D0                   u218_20 0625                   u250_20 0068  
                 u170_20 0B22                   u162_20 0AA8                   u306_20 0F0C  
                 u242_21 077D                   u226_21 06CF                   u218_21 0624  
                 u250_21 0067                   u170_21 0B21                   u162_21 0AA7  
                 u306_21 0F0B                   u234_25 0727                   u243_20 078D  
                 u235_20 0732                   u219_20 062B                   u251_20 006E  
                 u171_20 0B27                   u163_20 0ACD                   u307_20 0F10  
                 u235_21 0731                   u219_21 062A                   u251_21 006D  
                 u171_21 0B26                   u307_21 0F0F                   u243_25 0788  
                 u227_25 06D2                   u163_25 0AC8                   u180_20 03F9  
                 u172_20 039D                   u244_20 07AA                   u252_20 0073  
                 u164_20 0AE5                   u308_20 0F46                   u180_21 03F8  
                 u172_21 039C                   u244_21 07A9                   u260_21 017A  
                 u252_21 0072                   u164_21 0AE4                   u308_21 0F45  
                 u260_22 0181                   u260_23 0188                   u244_25 07A6  
                 u236_25 0735                   u228_25 06DB                   u181_20 0451  
                 u173_20 03A3                   u245_20 07C7                   u237_20 0746  
                 u229_20 06E6                   u253_20 008A                   u165_20 0AEC  
                 u309_20 0F7F                   u181_21 0450                   u173_21 03A2  
                 u245_21 07C6                   u237_21 0745                   u229_21 06E5  
                 u261_21 01A7                   u253_21 0089                   u165_21 0AEB  
                 u309_21 0F7E                   u261_22 01AE                   u261_23 01B5  
                 u181_25 044D                   u245_25 07C3                   u182_20 045C  
                 u174_20 03A8                   u246_20 07DE                   u238_20 074B  
                 u254_20 008F                   u190_21 04B1                   u182_21 045A  
                 u174_21 03A7                   u246_21 07DD                   u238_21 074A  
                 u254_21 008E                   u190_22 04B8                   u190_23 04BF  
                 u270_25 02A5                   u262_25 01B7                   u166_25 0AEE  
                 u191_20 04C3                   u183_20 045D                   u175_20 03C6  
                 u239_20 075F                   u159_20 0A7E                   u247_20 003C  
                 u167_20 0B02                   u191_21 04C2                   u175_21 03C5  
                 u239_21 075E                   u159_21 0A7D                   u263_21 01DD  
                 u255_21 00E0                   u247_21 003B                   u167_21 0B01  
                 u263_22 01E4                   u255_22 00E7                   u263_23 01EB  
                 u255_23 00EE                   u271_25 02BC                   u319_27 0E19  
                 u192_20 04C7                   u184_20 0471                   u176_20 03D1  
                 u280_20 0322                   u272_20 02C7                   u248_20 0042  
                 u168_20 0B09                   u192_21 04C6                   u184_21 0470  
                 u176_21 03D0                   u272_21 02C6                   u264_21 020A  
                 u256_21 00FC                   u248_21 0041                   u168_21 0B08  
                 u264_22 0211                   u256_22 0103                   u264_23 0218  
                 u256_23 010A                   u280_25 031D                   u193_20 04D6  
                 u185_20 0480                   u177_20 03D7                   u281_20 033F  
                 u249_20 0047                   u193_21 04D5                   u185_21 047F  
                 u177_21 03D6                   u281_21 033E                   u265_21 0237  
                 u257_21 0128                   u249_21 0046                   u265_22 023E  
                 u257_22 012F                   u265_23 0245                   u257_23 0136  
                 u281_25 033B                   u273_25 02CA                   u169_25 0B0E  
                 u178_20 03DC                   u282_20 0359                   u274_20 02DB  
                 u266_20 0261                   u290_20 0DA8                   u178_21 03DB  
                 u282_21 0358                   u274_21 02DA                   u258_21 0144  
                 u290_21 0DA7                   u258_22 014B                   u258_23 0152  
                 u194_25 04D9                   u186_25 0483                   u282_25 0355  
                 u266_25 025C                   u195_20 04FB                   u187_20 0496  
                 u179_20 03F5                   u283_20 0377                   u275_20 02E0  
                 u195_21 04FA                   u187_21 0495                   u179_21 03F4  
                 u283_21 0376                   u275_21 02DF                   u267_21 026D  
                 u267_22 0274                   u195_23 04F7                   u267_23 027B  
                 u259_25 0154                   u291_25 0DAD                   u188_20 049A  
                 u276_20 02F4                   u268_20 0289                   u292_20 0DB8  
                 u284_20 0D41                   u196_21 0512                   u188_21 0499  
                 u276_21 02F3                   u292_21 0DB7                   u284_21 0D40  
                 u196_22 0513                   u196_23 0518                   u196_24 0519  
                 u196_25 051E                   u268_25 0284                   u196_26 051F  
                 u197_20 0526                   u189_20 049F                   u277_20 02FB  
                 u293_20 0DBE                   u285_20 0D45                   u197_21 0527  
                 u189_21 049E                   u277_21 02FA                   u269_21 0295  
                 u293_21 0DBD                   u285_21 0D44                   u197_22 052C  
                 u269_22 029C                   u197_23 052D                   u269_23 02A3  
                 u198_20 0544                   u278_20 0301                   u294_20 0DC2  
                 u286_20 0D65                   u198_21 0543                   u278_21 0300  
                 u294_21 0DC1                   u286_21 0D64                   u199_20 0569  
                 u279_20 0313                   u295_20 0DD7                   u199_21 0568  
                 u279_21 0312                   u295_25 0DD2                   u287_25 0D78  
                 u296_20 0DE7                   u288_20 0D86                   u296_21 0DE6  
                 u288_21 0D85                   u297_20 0DEB                   u297_21 0DEA  
                 u289_25 0D9A                   u299_20 0DFB                   u299_21 0DFA  
                 _SPBRGH 009A                   _SSPBUF 0013         __end_of___xxtofl 0DF5  
              ??___fladd 005C                ??___fldiv 0028                ??___flmul 0042  
              ??___fltol 00B4                   saved_w 007E             ___xxtofl@arg 007A  
           ___xxtofl@exp 0079             ___xxtofl@val 0070  __end_of__initialization 0027  
             ___fltol@f1 0068           __pcstackCOMMON 0070             __pidataBANK1 07FE  
          __end_of_setup 0BD6       read_EEPROM@address 0070           _OPTION_REGbits 0081  
       write_EEPROM@data 0070                  ??_setup 00C5               __pbssBANK0 006F  
             __pbssBANK1 00A0        __end_of__Umul8_16 0A97               __pmaintext 0C88  
             __pintentry 0004                  _CCP1CON 0017                  _CCP2CON 001D  
              ?___xxtofl 0070               _cont_slave 00C8                  ___fladd 038C  
                ___fldiv 0614                  ___flmul 002B                  ___fltol 0A97  
                __ptext1 0B33                  __ptext2 0DF5                  __ptext3 0A5B  
                __ptext4 07F1                  __ptext5 0BD6                  __ptext6 0D3B  
                __ptext7 0A97                  __ptext8 002B                  __ptext9 0A70  
              _T2CONbits 0012               ??___xxtofl 0074                  clrloop0 0A54  
   end_of_initialization 0027      write_EEPROM@address 0071                _RCSTAbits 0018  
              _PORTAbits 0005                _PORTDbits 0008              ___fladd@grs 0067  
          ___xxtofl@sign 0078                _TRISCbits 0087              ___fldiv@grs 0034  
            ___fldiv@rem 002D              ___flmul@grs 0048              _CCP1CONbits 0017  
            _CCP2CONbits 001D                _TXSTAbits 0098              _BAUDCTLbits 0187  
    start_initialization 0013              __end_of_map 0C88              __end_of_isr 1000  
            _address_ci1 00AB              _address_ci2 00A7              _address_cr1 00AA  
            _address_cr2 00A6              _address_pi1 00AD              _address_pi2 00A9  
            _address_pr1 00AC              _address_pr2 00A8            ??_read_EEPROM 0070  
              __Umul8_16 0A70              __pdataBANK1 00C8                ___fladd@a 0058  
              ___fladd@b 0054                ___fldiv@a 0020                ___fldiv@b 0024  
              ___flmul@a 003E                ___flmul@b 003A                ___latbits 0002  
          __pcstackBANK0 0020            __pcstackBANK1 00B4                 ?___fladd 0054  
               ?___fldiv 0020                 ?___flmul 003A                 ?___fltol 0068  
             ?__Umul8_16 0070      __end_of_read_EEPROM 07FE            ?_write_EEPROM 0070  
      interrupt_function 0004                 _IOCBbits 0096                clear_ram0 0A53  
               _PIE1bits 008C                 _PIR1bits 000C               _ADCON0bits 001F  
             _ADCON1bits 009F           ??_write_EEPROM 0071              _cont_master 006F  
               _WPUBbits 0095               _EECON1bits 018C              _read_EEPROM 07F1  
            ??__Umul8_16 0072                 ___xxtofl 0D3B                 __ptext10 0614  
               __ptext11 038C             _val_temporal 00B3               _INTCONbits 000B  
               intlevel1 0000     __end_of_write_EEPROM 0A70               _OSCCONbits 008F  
 __Umul8_16@multiplicand 0070            ___fladd@signs 0064             ___fladd@aexp 0065  
           ___fladd@bexp 0066     __Umul8_16@multiplier 0078               _SSPCONbits 0014  
      __Umul8_16@product 0074  
